Archive member included to satisfy reference by file (symbol)

/opt/gcc-arm-none-eabi-10-2020-q4-major/bin/../lib/gcc/arm-none-eabi/10.2.1/../../../../arm-none-eabi/lib/thumb/v7e-m+fp/hard/libc_nano.a(lib_a-errno.o)
                              CMakeFiles/low_power_usecases.elf.dir/home/nxf46594/projects/845/repo/SDK_2.9.1_EVK-MIMX8MM/devices/MIMX8MM6/utilities/str/fsl_str.c.obj (__errno)
/opt/gcc-arm-none-eabi-10-2020-q4-major/bin/../lib/gcc/arm-none-eabi/10.2.1/../../../../arm-none-eabi/lib/thumb/v7e-m+fp/hard/libc_nano.a(lib_a-exit.o)
                              /opt/gcc-arm-none-eabi-10-2020-q4-major/bin/../lib/gcc/arm-none-eabi/10.2.1/../../../../arm-none-eabi/lib/thumb/v7e-m+fp/hard/crt0.o (exit)
/opt/gcc-arm-none-eabi-10-2020-q4-major/bin/../lib/gcc/arm-none-eabi/10.2.1/../../../../arm-none-eabi/lib/thumb/v7e-m+fp/hard/libc_nano.a(lib_a-impure.o)
                              /opt/gcc-arm-none-eabi-10-2020-q4-major/bin/../lib/gcc/arm-none-eabi/10.2.1/../../../../arm-none-eabi/lib/thumb/v7e-m+fp/hard/libc_nano.a(lib_a-exit.o) (_global_impure_ptr)
/opt/gcc-arm-none-eabi-10-2020-q4-major/bin/../lib/gcc/arm-none-eabi/10.2.1/../../../../arm-none-eabi/lib/thumb/v7e-m+fp/hard/libc_nano.a(lib_a-init.o)
                              /opt/gcc-arm-none-eabi-10-2020-q4-major/bin/../lib/gcc/arm-none-eabi/10.2.1/../../../../arm-none-eabi/lib/thumb/v7e-m+fp/hard/crt0.o (__libc_init_array)
/opt/gcc-arm-none-eabi-10-2020-q4-major/bin/../lib/gcc/arm-none-eabi/10.2.1/../../../../arm-none-eabi/lib/thumb/v7e-m+fp/hard/libc_nano.a(lib_a-malloc.o)
                              CMakeFiles/low_power_usecases.elf.dir/home/nxf46594/projects/845/repo/SDK_2.9.1_EVK-MIMX8MM/devices/MIMX8MM6/drivers/fsl_common.c.obj (malloc)
/opt/gcc-arm-none-eabi-10-2020-q4-major/bin/../lib/gcc/arm-none-eabi/10.2.1/../../../../arm-none-eabi/lib/thumb/v7e-m+fp/hard/libc_nano.a(lib_a-memcpy-stub.o)
                              CMakeFiles/low_power_usecases.elf.dir/home/nxf46594/projects/845/repo/SDK_2.9.1_EVK-MIMX8MM/boards/evkmimx8mm/rtos_examples/low_power_usecases/low_power_usecases.c.obj (memcpy)
/opt/gcc-arm-none-eabi-10-2020-q4-major/bin/../lib/gcc/arm-none-eabi/10.2.1/../../../../arm-none-eabi/lib/thumb/v7e-m+fp/hard/libc_nano.a(lib_a-memset.o)
                              /opt/gcc-arm-none-eabi-10-2020-q4-major/bin/../lib/gcc/arm-none-eabi/10.2.1/../../../../arm-none-eabi/lib/thumb/v7e-m+fp/hard/crt0.o (memset)
/opt/gcc-arm-none-eabi-10-2020-q4-major/bin/../lib/gcc/arm-none-eabi/10.2.1/../../../../arm-none-eabi/lib/thumb/v7e-m+fp/hard/libc_nano.a(lib_a-nano-freer.o)
                              /opt/gcc-arm-none-eabi-10-2020-q4-major/bin/../lib/gcc/arm-none-eabi/10.2.1/../../../../arm-none-eabi/lib/thumb/v7e-m+fp/hard/libc_nano.a(lib_a-malloc.o) (_free_r)
/opt/gcc-arm-none-eabi-10-2020-q4-major/bin/../lib/gcc/arm-none-eabi/10.2.1/../../../../arm-none-eabi/lib/thumb/v7e-m+fp/hard/libc_nano.a(lib_a-nano-mallocr.o)
                              /opt/gcc-arm-none-eabi-10-2020-q4-major/bin/../lib/gcc/arm-none-eabi/10.2.1/../../../../arm-none-eabi/lib/thumb/v7e-m+fp/hard/libc_nano.a(lib_a-malloc.o) (_malloc_r)
/opt/gcc-arm-none-eabi-10-2020-q4-major/bin/../lib/gcc/arm-none-eabi/10.2.1/../../../../arm-none-eabi/lib/thumb/v7e-m+fp/hard/libc_nano.a(lib_a-sbrkr.o)
                              /opt/gcc-arm-none-eabi-10-2020-q4-major/bin/../lib/gcc/arm-none-eabi/10.2.1/../../../../arm-none-eabi/lib/thumb/v7e-m+fp/hard/libc_nano.a(lib_a-nano-mallocr.o) (_sbrk_r)
/opt/gcc-arm-none-eabi-10-2020-q4-major/bin/../lib/gcc/arm-none-eabi/10.2.1/../../../../arm-none-eabi/lib/thumb/v7e-m+fp/hard/libc_nano.a(lib_a-sprintf.o)
                              CMakeFiles/low_power_usecases.elf.dir/home/nxf46594/projects/845/repo/SDK_2.9.1_EVK-MIMX8MM/rtos/freertos/freertos_kernel/tasks.c.obj (sprintf)
/opt/gcc-arm-none-eabi-10-2020-q4-major/bin/../lib/gcc/arm-none-eabi/10.2.1/../../../../arm-none-eabi/lib/thumb/v7e-m+fp/hard/libc_nano.a(lib_a-strcpy.o)
                              CMakeFiles/low_power_usecases.elf.dir/home/nxf46594/projects/845/repo/SDK_2.9.1_EVK-MIMX8MM/rtos/freertos/freertos_kernel/tasks.c.obj (strcpy)
/opt/gcc-arm-none-eabi-10-2020-q4-major/bin/../lib/gcc/arm-none-eabi/10.2.1/../../../../arm-none-eabi/lib/thumb/v7e-m+fp/hard/libc_nano.a(lib_a-strlen.o)
                              CMakeFiles/low_power_usecases.elf.dir/home/nxf46594/projects/845/repo/SDK_2.9.1_EVK-MIMX8MM/rtos/freertos/freertos_kernel/tasks.c.obj (strlen)
/opt/gcc-arm-none-eabi-10-2020-q4-major/bin/../lib/gcc/arm-none-eabi/10.2.1/../../../../arm-none-eabi/lib/thumb/v7e-m+fp/hard/libc_nano.a(lib_a-strtoul.o)
                              CMakeFiles/low_power_usecases.elf.dir/home/nxf46594/projects/845/repo/SDK_2.9.1_EVK-MIMX8MM/devices/MIMX8MM6/utilities/str/fsl_str.c.obj (strtoul)
/opt/gcc-arm-none-eabi-10-2020-q4-major/bin/../lib/gcc/arm-none-eabi/10.2.1/../../../../arm-none-eabi/lib/thumb/v7e-m+fp/hard/libc_nano.a(lib_a-ctype_.o)
                              /opt/gcc-arm-none-eabi-10-2020-q4-major/bin/../lib/gcc/arm-none-eabi/10.2.1/../../../../arm-none-eabi/lib/thumb/v7e-m+fp/hard/libc_nano.a(lib_a-strtoul.o) (_ctype_)
/opt/gcc-arm-none-eabi-10-2020-q4-major/bin/../lib/gcc/arm-none-eabi/10.2.1/../../../../arm-none-eabi/lib/thumb/v7e-m+fp/hard/libc_nano.a(lib_a-mlock.o)
                              /opt/gcc-arm-none-eabi-10-2020-q4-major/bin/../lib/gcc/arm-none-eabi/10.2.1/../../../../arm-none-eabi/lib/thumb/v7e-m+fp/hard/libc_nano.a(lib_a-nano-freer.o) (__malloc_lock)
/opt/gcc-arm-none-eabi-10-2020-q4-major/bin/../lib/gcc/arm-none-eabi/10.2.1/../../../../arm-none-eabi/lib/thumb/v7e-m+fp/hard/libc_nano.a(lib_a-nano-svfprintf.o)
                              /opt/gcc-arm-none-eabi-10-2020-q4-major/bin/../lib/gcc/arm-none-eabi/10.2.1/../../../../arm-none-eabi/lib/thumb/v7e-m+fp/hard/libc_nano.a(lib_a-sprintf.o) (_svfprintf_r)
/opt/gcc-arm-none-eabi-10-2020-q4-major/bin/../lib/gcc/arm-none-eabi/10.2.1/../../../../arm-none-eabi/lib/thumb/v7e-m+fp/hard/libc_nano.a(lib_a-nano-vfprintf_i.o)
                              /opt/gcc-arm-none-eabi-10-2020-q4-major/bin/../lib/gcc/arm-none-eabi/10.2.1/../../../../arm-none-eabi/lib/thumb/v7e-m+fp/hard/libc_nano.a(lib_a-nano-svfprintf.o) (_printf_i)
/opt/gcc-arm-none-eabi-10-2020-q4-major/bin/../lib/gcc/arm-none-eabi/10.2.1/../../../../arm-none-eabi/lib/thumb/v7e-m+fp/hard/libc_nano.a(lib_a-reent.o)
                              /opt/gcc-arm-none-eabi-10-2020-q4-major/bin/../lib/gcc/arm-none-eabi/10.2.1/../../../../arm-none-eabi/lib/thumb/v7e-m+fp/hard/libc_nano.a(lib_a-sbrkr.o) (errno)
/opt/gcc-arm-none-eabi-10-2020-q4-major/bin/../lib/gcc/arm-none-eabi/10.2.1/../../../../arm-none-eabi/lib/thumb/v7e-m+fp/hard/libc_nano.a(lib_a-lock.o)
                              /opt/gcc-arm-none-eabi-10-2020-q4-major/bin/../lib/gcc/arm-none-eabi/10.2.1/../../../../arm-none-eabi/lib/thumb/v7e-m+fp/hard/libc_nano.a(lib_a-mlock.o) (__retarget_lock_acquire_recursive)
/opt/gcc-arm-none-eabi-10-2020-q4-major/bin/../lib/gcc/arm-none-eabi/10.2.1/../../../../arm-none-eabi/lib/thumb/v7e-m+fp/hard/libc_nano.a(lib_a-memchr.o)
                              /opt/gcc-arm-none-eabi-10-2020-q4-major/bin/../lib/gcc/arm-none-eabi/10.2.1/../../../../arm-none-eabi/lib/thumb/v7e-m+fp/hard/libc_nano.a(lib_a-nano-svfprintf.o) (memchr)
/opt/gcc-arm-none-eabi-10-2020-q4-major/bin/../lib/gcc/arm-none-eabi/10.2.1/../../../../arm-none-eabi/lib/thumb/v7e-m+fp/hard/libc_nano.a(lib_a-memmove.o)
                              /opt/gcc-arm-none-eabi-10-2020-q4-major/bin/../lib/gcc/arm-none-eabi/10.2.1/../../../../arm-none-eabi/lib/thumb/v7e-m+fp/hard/libc_nano.a(lib_a-nano-svfprintf.o) (memmove)
/opt/gcc-arm-none-eabi-10-2020-q4-major/bin/../lib/gcc/arm-none-eabi/10.2.1/../../../../arm-none-eabi/lib/thumb/v7e-m+fp/hard/libc_nano.a(lib_a-nano-reallocr.o)
                              /opt/gcc-arm-none-eabi-10-2020-q4-major/bin/../lib/gcc/arm-none-eabi/10.2.1/../../../../arm-none-eabi/lib/thumb/v7e-m+fp/hard/libc_nano.a(lib_a-nano-svfprintf.o) (_realloc_r)
/opt/gcc-arm-none-eabi-10-2020-q4-major/bin/../lib/gcc/arm-none-eabi/10.2.1/../../../../arm-none-eabi/lib/thumb/v7e-m+fp/hard/libc_nano.a(lib_a-nano-msizer.o)
                              /opt/gcc-arm-none-eabi-10-2020-q4-major/bin/../lib/gcc/arm-none-eabi/10.2.1/../../../../arm-none-eabi/lib/thumb/v7e-m+fp/hard/libc_nano.a(lib_a-nano-reallocr.o) (_malloc_usable_size_r)
/opt/gcc-arm-none-eabi-10-2020-q4-major/bin/../lib/gcc/arm-none-eabi/10.2.1/thumb/v7e-m+fp/hard/libgcc.a(_aeabi_uldivmod.o)
                              CMakeFiles/low_power_usecases.elf.dir/home/nxf46594/projects/845/repo/SDK_2.9.1_EVK-MIMX8MM/devices/MIMX8MM6/drivers/fsl_common.c.obj (__aeabi_uldivmod)
/opt/gcc-arm-none-eabi-10-2020-q4-major/bin/../lib/gcc/arm-none-eabi/10.2.1/thumb/v7e-m+fp/hard/libgcc.a(_udivmoddi4.o)
                              /opt/gcc-arm-none-eabi-10-2020-q4-major/bin/../lib/gcc/arm-none-eabi/10.2.1/thumb/v7e-m+fp/hard/libgcc.a(_aeabi_uldivmod.o) (__udivmoddi4)
/opt/gcc-arm-none-eabi-10-2020-q4-major/bin/../lib/gcc/arm-none-eabi/10.2.1/thumb/v7e-m+fp/hard/libgcc.a(_dvmd_tls.o)
                              /opt/gcc-arm-none-eabi-10-2020-q4-major/bin/../lib/gcc/arm-none-eabi/10.2.1/thumb/v7e-m+fp/hard/libgcc.a(_aeabi_uldivmod.o) (__aeabi_ldiv0)
/opt/gcc-arm-none-eabi-10-2020-q4-major/bin/../lib/gcc/arm-none-eabi/10.2.1/../../../../arm-none-eabi/lib/thumb/v7e-m+fp/hard/libnosys.a(_exit.o)
                              /opt/gcc-arm-none-eabi-10-2020-q4-major/bin/../lib/gcc/arm-none-eabi/10.2.1/../../../../arm-none-eabi/lib/thumb/v7e-m+fp/hard/libc_nano.a(lib_a-exit.o) (_exit)

Discarded input sections

 .text          0x0000000000000000        0x0 /opt/gcc-arm-none-eabi-10-2020-q4-major/bin/../lib/gcc/arm-none-eabi/10.2.1/thumb/v7e-m+fp/hard/crti.o
 .data          0x0000000000000000        0x0 /opt/gcc-arm-none-eabi-10-2020-q4-major/bin/../lib/gcc/arm-none-eabi/10.2.1/thumb/v7e-m+fp/hard/crti.o
 .bss           0x0000000000000000        0x0 /opt/gcc-arm-none-eabi-10-2020-q4-major/bin/../lib/gcc/arm-none-eabi/10.2.1/thumb/v7e-m+fp/hard/crti.o
 .data          0x0000000000000000        0x4 /opt/gcc-arm-none-eabi-10-2020-q4-major/bin/../lib/gcc/arm-none-eabi/10.2.1/thumb/v7e-m+fp/hard/crtbegin.o
 .rodata        0x0000000000000000       0x24 /opt/gcc-arm-none-eabi-10-2020-q4-major/bin/../lib/gcc/arm-none-eabi/10.2.1/thumb/v7e-m+fp/hard/crtbegin.o
 .data          0x0000000000000000        0x0 /opt/gcc-arm-none-eabi-10-2020-q4-major/bin/../lib/gcc/arm-none-eabi/10.2.1/../../../../arm-none-eabi/lib/thumb/v7e-m+fp/hard/crt0.o
 .bss           0x0000000000000000        0x0 /opt/gcc-arm-none-eabi-10-2020-q4-major/bin/../lib/gcc/arm-none-eabi/10.2.1/../../../../arm-none-eabi/lib/thumb/v7e-m+fp/hard/crt0.o
 .ARM.extab     0x0000000000000000        0x0 /opt/gcc-arm-none-eabi-10-2020-q4-major/bin/../lib/gcc/arm-none-eabi/10.2.1/../../../../arm-none-eabi/lib/thumb/v7e-m+fp/hard/crt0.o
 .text          0x0000000000000000        0x0 CMakeFiles/low_power_usecases.elf.dir/home/nxf46594/projects/845/repo/SDK_2.9.1_EVK-MIMX8MM/boards/evkmimx8mm/rtos_examples/low_power_usecases/low_power_usecases.c.obj
 .data          0x0000000000000000        0x0 CMakeFiles/low_power_usecases.elf.dir/home/nxf46594/projects/845/repo/SDK_2.9.1_EVK-MIMX8MM/boards/evkmimx8mm/rtos_examples/low_power_usecases/low_power_usecases.c.obj
 .bss           0x0000000000000000        0x0 CMakeFiles/low_power_usecases.elf.dir/home/nxf46594/projects/845/repo/SDK_2.9.1_EVK-MIMX8MM/boards/evkmimx8mm/rtos_examples/low_power_usecases/low_power_usecases.c.obj
 .text          0x0000000000000000        0x0 CMakeFiles/low_power_usecases.elf.dir/home/nxf46594/projects/845/repo/SDK_2.9.1_EVK-MIMX8MM/boards/evkmimx8mm/rtos_examples/low_power_usecases/pin_mux.c.obj
 .data          0x0000000000000000        0x0 CMakeFiles/low_power_usecases.elf.dir/home/nxf46594/projects/845/repo/SDK_2.9.1_EVK-MIMX8MM/boards/evkmimx8mm/rtos_examples/low_power_usecases/pin_mux.c.obj
 .bss           0x0000000000000000        0x0 CMakeFiles/low_power_usecases.elf.dir/home/nxf46594/projects/845/repo/SDK_2.9.1_EVK-MIMX8MM/boards/evkmimx8mm/rtos_examples/low_power_usecases/pin_mux.c.obj
 .text          0x0000000000000000        0x0 CMakeFiles/low_power_usecases.elf.dir/home/nxf46594/projects/845/repo/SDK_2.9.1_EVK-MIMX8MM/boards/evkmimx8mm/rtos_examples/low_power_usecases/board.c.obj
 .data          0x0000000000000000        0x0 CMakeFiles/low_power_usecases.elf.dir/home/nxf46594/projects/845/repo/SDK_2.9.1_EVK-MIMX8MM/boards/evkmimx8mm/rtos_examples/low_power_usecases/board.c.obj
 .bss           0x0000000000000000        0x0 CMakeFiles/low_power_usecases.elf.dir/home/nxf46594/projects/845/repo/SDK_2.9.1_EVK-MIMX8MM/boards/evkmimx8mm/rtos_examples/low_power_usecases/board.c.obj
 .text          0x0000000000000000        0x0 CMakeFiles/low_power_usecases.elf.dir/home/nxf46594/projects/845/repo/SDK_2.9.1_EVK-MIMX8MM/boards/evkmimx8mm/rtos_examples/low_power_usecases/clock_config.c.obj
 .data          0x0000000000000000        0x0 CMakeFiles/low_power_usecases.elf.dir/home/nxf46594/projects/845/repo/SDK_2.9.1_EVK-MIMX8MM/boards/evkmimx8mm/rtos_examples/low_power_usecases/clock_config.c.obj
 .bss           0x0000000000000000        0x0 CMakeFiles/low_power_usecases.elf.dir/home/nxf46594/projects/845/repo/SDK_2.9.1_EVK-MIMX8MM/boards/evkmimx8mm/rtos_examples/low_power_usecases/clock_config.c.obj
 .rodata.g_audioPll1Config
                0x0000000000000000       0x10 CMakeFiles/low_power_usecases.elf.dir/home/nxf46594/projects/845/repo/SDK_2.9.1_EVK-MIMX8MM/boards/evkmimx8mm/rtos_examples/low_power_usecases/clock_config.c.obj
 .rodata.g_audioPll2Config
                0x0000000000000000       0x10 CMakeFiles/low_power_usecases.elf.dir/home/nxf46594/projects/845/repo/SDK_2.9.1_EVK-MIMX8MM/boards/evkmimx8mm/rtos_examples/low_power_usecases/clock_config.c.obj
 .rodata.g_sysPll1Config
                0x0000000000000000        0xc CMakeFiles/low_power_usecases.elf.dir/home/nxf46594/projects/845/repo/SDK_2.9.1_EVK-MIMX8MM/boards/evkmimx8mm/rtos_examples/low_power_usecases/clock_config.c.obj
 .rodata.g_sysPll2Config
                0x0000000000000000        0xc CMakeFiles/low_power_usecases.elf.dir/home/nxf46594/projects/845/repo/SDK_2.9.1_EVK-MIMX8MM/boards/evkmimx8mm/rtos_examples/low_power_usecases/clock_config.c.obj
 .rodata.g_sysPll3Config
                0x0000000000000000        0xc CMakeFiles/low_power_usecases.elf.dir/home/nxf46594/projects/845/repo/SDK_2.9.1_EVK-MIMX8MM/boards/evkmimx8mm/rtos_examples/low_power_usecases/clock_config.c.obj
 .text          0x0000000000000000        0x0 CMakeFiles/low_power_usecases.elf.dir/home/nxf46594/projects/845/repo/SDK_2.9.1_EVK-MIMX8MM/boards/evkmimx8mm/rtos_examples/low_power_usecases/empty_rsc_table.c.obj
 .data          0x0000000000000000        0x0 CMakeFiles/low_power_usecases.elf.dir/home/nxf46594/projects/845/repo/SDK_2.9.1_EVK-MIMX8MM/boards/evkmimx8mm/rtos_examples/low_power_usecases/empty_rsc_table.c.obj
 .bss           0x0000000000000000        0x0 CMakeFiles/low_power_usecases.elf.dir/home/nxf46594/projects/845/repo/SDK_2.9.1_EVK-MIMX8MM/boards/evkmimx8mm/rtos_examples/low_power_usecases/empty_rsc_table.c.obj
 .text          0x0000000000000000        0x0 CMakeFiles/low_power_usecases.elf.dir/home/nxf46594/projects/845/repo/SDK_2.9.1_EVK-MIMX8MM/devices/MIMX8MM6/drivers/fsl_gpio.c.obj
 .data          0x0000000000000000        0x0 CMakeFiles/low_power_usecases.elf.dir/home/nxf46594/projects/845/repo/SDK_2.9.1_EVK-MIMX8MM/devices/MIMX8MM6/drivers/fsl_gpio.c.obj
 .bss           0x0000000000000000        0x0 CMakeFiles/low_power_usecases.elf.dir/home/nxf46594/projects/845/repo/SDK_2.9.1_EVK-MIMX8MM/devices/MIMX8MM6/drivers/fsl_gpio.c.obj
 .text.GPIO_SetPinInterruptConfig
                0x0000000000000000       0x22 CMakeFiles/low_power_usecases.elf.dir/home/nxf46594/projects/845/repo/SDK_2.9.1_EVK-MIMX8MM/devices/MIMX8MM6/drivers/fsl_gpio.c.obj
 .rodata.s_gpioBases
                0x0000000000000000       0x18 CMakeFiles/low_power_usecases.elf.dir/home/nxf46594/projects/845/repo/SDK_2.9.1_EVK-MIMX8MM/devices/MIMX8MM6/drivers/fsl_gpio.c.obj
 .rodata.s_gpioClock
                0x0000000000000000       0x18 CMakeFiles/low_power_usecases.elf.dir/home/nxf46594/projects/845/repo/SDK_2.9.1_EVK-MIMX8MM/devices/MIMX8MM6/drivers/fsl_gpio.c.obj
 .rodata        0x0000000000000000       0x8a CMakeFiles/low_power_usecases.elf.dir/home/nxf46594/projects/845/repo/SDK_2.9.1_EVK-MIMX8MM/devices/MIMX8MM6/drivers/fsl_gpio.c.obj
 .text.GPIO_GetInstance
                0x0000000000000000       0x58 CMakeFiles/low_power_usecases.elf.dir/home/nxf46594/projects/845/repo/SDK_2.9.1_EVK-MIMX8MM/devices/MIMX8MM6/drivers/fsl_gpio.c.obj
 .text.GPIO_PinInit
                0x0000000000000000       0xa4 CMakeFiles/low_power_usecases.elf.dir/home/nxf46594/projects/845/repo/SDK_2.9.1_EVK-MIMX8MM/devices/MIMX8MM6/drivers/fsl_gpio.c.obj
 .text.GPIO_PinWrite
                0x0000000000000000       0x64 CMakeFiles/low_power_usecases.elf.dir/home/nxf46594/projects/845/repo/SDK_2.9.1_EVK-MIMX8MM/devices/MIMX8MM6/drivers/fsl_gpio.c.obj
 .text.GPIO_PinSetInterruptConfig
                0x0000000000000000       0xfc CMakeFiles/low_power_usecases.elf.dir/home/nxf46594/projects/845/repo/SDK_2.9.1_EVK-MIMX8MM/devices/MIMX8MM6/drivers/fsl_gpio.c.obj
 .rodata.__func__.1
                0x0000000000000000       0x11 CMakeFiles/low_power_usecases.elf.dir/home/nxf46594/projects/845/repo/SDK_2.9.1_EVK-MIMX8MM/devices/MIMX8MM6/drivers/fsl_gpio.c.obj
 .rodata.__func__.0
                0x0000000000000000        0xe CMakeFiles/low_power_usecases.elf.dir/home/nxf46594/projects/845/repo/SDK_2.9.1_EVK-MIMX8MM/devices/MIMX8MM6/drivers/fsl_gpio.c.obj
 .debug_info    0x0000000000000000      0xbb3 CMakeFiles/low_power_usecases.elf.dir/home/nxf46594/projects/845/repo/SDK_2.9.1_EVK-MIMX8MM/devices/MIMX8MM6/drivers/fsl_gpio.c.obj
 .debug_abbrev  0x0000000000000000      0x1da CMakeFiles/low_power_usecases.elf.dir/home/nxf46594/projects/845/repo/SDK_2.9.1_EVK-MIMX8MM/devices/MIMX8MM6/drivers/fsl_gpio.c.obj
 .debug_aranges
                0x0000000000000000       0x40 CMakeFiles/low_power_usecases.elf.dir/home/nxf46594/projects/845/repo/SDK_2.9.1_EVK-MIMX8MM/devices/MIMX8MM6/drivers/fsl_gpio.c.obj
 .debug_ranges  0x0000000000000000       0x30 CMakeFiles/low_power_usecases.elf.dir/home/nxf46594/projects/845/repo/SDK_2.9.1_EVK-MIMX8MM/devices/MIMX8MM6/drivers/fsl_gpio.c.obj
 .debug_line    0x0000000000000000      0x2ee CMakeFiles/low_power_usecases.elf.dir/home/nxf46594/projects/845/repo/SDK_2.9.1_EVK-MIMX8MM/devices/MIMX8MM6/drivers/fsl_gpio.c.obj
 .debug_str     0x0000000000000000     0x11ce CMakeFiles/low_power_usecases.elf.dir/home/nxf46594/projects/845/repo/SDK_2.9.1_EVK-MIMX8MM/devices/MIMX8MM6/drivers/fsl_gpio.c.obj
 .comment       0x0000000000000000       0x4e CMakeFiles/low_power_usecases.elf.dir/home/nxf46594/projects/845/repo/SDK_2.9.1_EVK-MIMX8MM/devices/MIMX8MM6/drivers/fsl_gpio.c.obj
 .debug_frame   0x0000000000000000       0xc8 CMakeFiles/low_power_usecases.elf.dir/home/nxf46594/projects/845/repo/SDK_2.9.1_EVK-MIMX8MM/devices/MIMX8MM6/drivers/fsl_gpio.c.obj
 .ARM.attributes
                0x0000000000000000       0x34 CMakeFiles/low_power_usecases.elf.dir/home/nxf46594/projects/845/repo/SDK_2.9.1_EVK-MIMX8MM/devices/MIMX8MM6/drivers/fsl_gpio.c.obj
 .text          0x0000000000000000        0x0 CMakeFiles/low_power_usecases.elf.dir/home/nxf46594/projects/845/repo/SDK_2.9.1_EVK-MIMX8MM/devices/MIMX8MM6/drivers/fsl_common.c.obj
 .data          0x0000000000000000        0x0 CMakeFiles/low_power_usecases.elf.dir/home/nxf46594/projects/845/repo/SDK_2.9.1_EVK-MIMX8MM/devices/MIMX8MM6/drivers/fsl_common.c.obj
 .bss           0x0000000000000000        0x0 CMakeFiles/low_power_usecases.elf.dir/home/nxf46594/projects/845/repo/SDK_2.9.1_EVK-MIMX8MM/devices/MIMX8MM6/drivers/fsl_common.c.obj
 .text.SDK_Malloc
                0x0000000000000000       0x92 CMakeFiles/low_power_usecases.elf.dir/home/nxf46594/projects/845/repo/SDK_2.9.1_EVK-MIMX8MM/devices/MIMX8MM6/drivers/fsl_common.c.obj
 .text.SDK_Free
                0x0000000000000000       0x3a CMakeFiles/low_power_usecases.elf.dir/home/nxf46594/projects/845/repo/SDK_2.9.1_EVK-MIMX8MM/devices/MIMX8MM6/drivers/fsl_common.c.obj
 .text.DelayLoop
                0x0000000000000000       0x20 CMakeFiles/low_power_usecases.elf.dir/home/nxf46594/projects/845/repo/SDK_2.9.1_EVK-MIMX8MM/devices/MIMX8MM6/drivers/fsl_common.c.obj
 .rodata        0x0000000000000000       0x88 CMakeFiles/low_power_usecases.elf.dir/home/nxf46594/projects/845/repo/SDK_2.9.1_EVK-MIMX8MM/devices/MIMX8MM6/drivers/fsl_common.c.obj
 .text.SDK_DelayAtLeastUs
                0x0000000000000000       0xac CMakeFiles/low_power_usecases.elf.dir/home/nxf46594/projects/845/repo/SDK_2.9.1_EVK-MIMX8MM/devices/MIMX8MM6/drivers/fsl_common.c.obj
 .rodata.__func__.0
                0x0000000000000000       0x13 CMakeFiles/low_power_usecases.elf.dir/home/nxf46594/projects/845/repo/SDK_2.9.1_EVK-MIMX8MM/devices/MIMX8MM6/drivers/fsl_common.c.obj
 .debug_info    0x0000000000000000      0x26f CMakeFiles/low_power_usecases.elf.dir/home/nxf46594/projects/845/repo/SDK_2.9.1_EVK-MIMX8MM/devices/MIMX8MM6/drivers/fsl_common.c.obj
 .debug_abbrev  0x0000000000000000      0x172 CMakeFiles/low_power_usecases.elf.dir/home/nxf46594/projects/845/repo/SDK_2.9.1_EVK-MIMX8MM/devices/MIMX8MM6/drivers/fsl_common.c.obj
 .debug_aranges
                0x0000000000000000       0x38 CMakeFiles/low_power_usecases.elf.dir/home/nxf46594/projects/845/repo/SDK_2.9.1_EVK-MIMX8MM/devices/MIMX8MM6/drivers/fsl_common.c.obj
 .debug_ranges  0x0000000000000000       0x28 CMakeFiles/low_power_usecases.elf.dir/home/nxf46594/projects/845/repo/SDK_2.9.1_EVK-MIMX8MM/devices/MIMX8MM6/drivers/fsl_common.c.obj
 .debug_line    0x0000000000000000      0x1d7 CMakeFiles/low_power_usecases.elf.dir/home/nxf46594/projects/845/repo/SDK_2.9.1_EVK-MIMX8MM/devices/MIMX8MM6/drivers/fsl_common.c.obj
 .debug_str     0x0000000000000000      0x33b CMakeFiles/low_power_usecases.elf.dir/home/nxf46594/projects/845/repo/SDK_2.9.1_EVK-MIMX8MM/devices/MIMX8MM6/drivers/fsl_common.c.obj
 .comment       0x0000000000000000       0x4e CMakeFiles/low_power_usecases.elf.dir/home/nxf46594/projects/845/repo/SDK_2.9.1_EVK-MIMX8MM/devices/MIMX8MM6/drivers/fsl_common.c.obj
 .debug_frame   0x0000000000000000       0xac CMakeFiles/low_power_usecases.elf.dir/home/nxf46594/projects/845/repo/SDK_2.9.1_EVK-MIMX8MM/devices/MIMX8MM6/drivers/fsl_common.c.obj
 .ARM.attributes
                0x0000000000000000       0x34 CMakeFiles/low_power_usecases.elf.dir/home/nxf46594/projects/845/repo/SDK_2.9.1_EVK-MIMX8MM/devices/MIMX8MM6/drivers/fsl_common.c.obj
 .text          0x0000000000000000        0x0 CMakeFiles/low_power_usecases.elf.dir/home/nxf46594/projects/845/repo/SDK_2.9.1_EVK-MIMX8MM/devices/MIMX8MM6/drivers/fsl_clock.c.obj
 .data          0x0000000000000000        0x0 CMakeFiles/low_power_usecases.elf.dir/home/nxf46594/projects/845/repo/SDK_2.9.1_EVK-MIMX8MM/devices/MIMX8MM6/drivers/fsl_clock.c.obj
 .bss           0x0000000000000000        0x0 CMakeFiles/low_power_usecases.elf.dir/home/nxf46594/projects/845/repo/SDK_2.9.1_EVK-MIMX8MM/devices/MIMX8MM6/drivers/fsl_clock.c.obj
 .text.CLOCK_GetRootMux
                0x0000000000000000       0x1e CMakeFiles/low_power_usecases.elf.dir/home/nxf46594/projects/845/repo/SDK_2.9.1_EVK-MIMX8MM/devices/MIMX8MM6/drivers/fsl_clock.c.obj
 .text.CLOCK_GetRootPreDivider
                0x0000000000000000       0x20 CMakeFiles/low_power_usecases.elf.dir/home/nxf46594/projects/845/repo/SDK_2.9.1_EVK-MIMX8MM/devices/MIMX8MM6/drivers/fsl_clock.c.obj
 .text.CLOCK_GetRootPostDivider
                0x0000000000000000       0x1e CMakeFiles/low_power_usecases.elf.dir/home/nxf46594/projects/845/repo/SDK_2.9.1_EVK-MIMX8MM/devices/MIMX8MM6/drivers/fsl_clock.c.obj
 .text.CLOCK_PowerDownPll
                0x0000000000000000       0x3a CMakeFiles/low_power_usecases.elf.dir/home/nxf46594/projects/845/repo/SDK_2.9.1_EVK-MIMX8MM/devices/MIMX8MM6/drivers/fsl_clock.c.obj
 .text.CLOCK_SetPllBypass
                0x0000000000000000       0x68 CMakeFiles/low_power_usecases.elf.dir/home/nxf46594/projects/845/repo/SDK_2.9.1_EVK-MIMX8MM/devices/MIMX8MM6/drivers/fsl_clock.c.obj
 .text.CLOCK_IsPllBypassed
                0x0000000000000000       0x38 CMakeFiles/low_power_usecases.elf.dir/home/nxf46594/projects/845/repo/SDK_2.9.1_EVK-MIMX8MM/devices/MIMX8MM6/drivers/fsl_clock.c.obj
 .text.CLOCK_IsPllLocked
                0x0000000000000000       0x24 CMakeFiles/low_power_usecases.elf.dir/home/nxf46594/projects/845/repo/SDK_2.9.1_EVK-MIMX8MM/devices/MIMX8MM6/drivers/fsl_clock.c.obj
 .text.CLOCK_EnableAnalogClock
                0x0000000000000000       0x38 CMakeFiles/low_power_usecases.elf.dir/home/nxf46594/projects/845/repo/SDK_2.9.1_EVK-MIMX8MM/devices/MIMX8MM6/drivers/fsl_clock.c.obj
 .text.CLOCK_GetFreq
                0x0000000000000000       0x6c CMakeFiles/low_power_usecases.elf.dir/home/nxf46594/projects/845/repo/SDK_2.9.1_EVK-MIMX8MM/devices/MIMX8MM6/drivers/fsl_clock.c.obj
 .text.CLOCK_GetCoreM4Freq
                0x0000000000000000       0xe8 CMakeFiles/low_power_usecases.elf.dir/home/nxf46594/projects/845/repo/SDK_2.9.1_EVK-MIMX8MM/devices/MIMX8MM6/drivers/fsl_clock.c.obj
 .text.CLOCK_GetAxiFreq
                0x0000000000000000       0xdc CMakeFiles/low_power_usecases.elf.dir/home/nxf46594/projects/845/repo/SDK_2.9.1_EVK-MIMX8MM/devices/MIMX8MM6/drivers/fsl_clock.c.obj
 .text.CLOCK_GetAhbFreq
                0x0000000000000000       0xe0 CMakeFiles/low_power_usecases.elf.dir/home/nxf46594/projects/845/repo/SDK_2.9.1_EVK-MIMX8MM/devices/MIMX8MM6/drivers/fsl_clock.c.obj
 .text.CLOCK_GetPllRefClkFreq
                0x0000000000000000       0x7c CMakeFiles/low_power_usecases.elf.dir/home/nxf46594/projects/845/repo/SDK_2.9.1_EVK-MIMX8MM/devices/MIMX8MM6/drivers/fsl_clock.c.obj
 .text.CLOCK_GetPllFreq
                0x0000000000000000      0x1dc CMakeFiles/low_power_usecases.elf.dir/home/nxf46594/projects/845/repo/SDK_2.9.1_EVK-MIMX8MM/devices/MIMX8MM6/drivers/fsl_clock.c.obj
 .text.CLOCK_InitArmPll
                0x0000000000000000       0x74 CMakeFiles/low_power_usecases.elf.dir/home/nxf46594/projects/845/repo/SDK_2.9.1_EVK-MIMX8MM/devices/MIMX8MM6/drivers/fsl_clock.c.obj
 .text.CLOCK_DeinitArmPll
                0x0000000000000000       0x18 CMakeFiles/low_power_usecases.elf.dir/home/nxf46594/projects/845/repo/SDK_2.9.1_EVK-MIMX8MM/devices/MIMX8MM6/drivers/fsl_clock.c.obj
 .text.CLOCK_InitAudioPll1
                0x0000000000000000       0x68 CMakeFiles/low_power_usecases.elf.dir/home/nxf46594/projects/845/repo/SDK_2.9.1_EVK-MIMX8MM/devices/MIMX8MM6/drivers/fsl_clock.c.obj
 .text.CLOCK_DeinitAudioPll1
                0x0000000000000000       0x14 CMakeFiles/low_power_usecases.elf.dir/home/nxf46594/projects/845/repo/SDK_2.9.1_EVK-MIMX8MM/devices/MIMX8MM6/drivers/fsl_clock.c.obj
 .text.CLOCK_InitAudioPll2
                0x0000000000000000       0x74 CMakeFiles/low_power_usecases.elf.dir/home/nxf46594/projects/845/repo/SDK_2.9.1_EVK-MIMX8MM/devices/MIMX8MM6/drivers/fsl_clock.c.obj
 .text.CLOCK_DeinitAudioPll2
                0x0000000000000000       0x18 CMakeFiles/low_power_usecases.elf.dir/home/nxf46594/projects/845/repo/SDK_2.9.1_EVK-MIMX8MM/devices/MIMX8MM6/drivers/fsl_clock.c.obj
 .text.CLOCK_InitVideoPll1
                0x0000000000000000       0x74 CMakeFiles/low_power_usecases.elf.dir/home/nxf46594/projects/845/repo/SDK_2.9.1_EVK-MIMX8MM/devices/MIMX8MM6/drivers/fsl_clock.c.obj
 .text.CLOCK_DeinitVideoPll1
                0x0000000000000000       0x18 CMakeFiles/low_power_usecases.elf.dir/home/nxf46594/projects/845/repo/SDK_2.9.1_EVK-MIMX8MM/devices/MIMX8MM6/drivers/fsl_clock.c.obj
 .text.CLOCK_InitSysPll1
                0x0000000000000000       0x74 CMakeFiles/low_power_usecases.elf.dir/home/nxf46594/projects/845/repo/SDK_2.9.1_EVK-MIMX8MM/devices/MIMX8MM6/drivers/fsl_clock.c.obj
 .text.CLOCK_DeinitSysPll1
                0x0000000000000000       0x18 CMakeFiles/low_power_usecases.elf.dir/home/nxf46594/projects/845/repo/SDK_2.9.1_EVK-MIMX8MM/devices/MIMX8MM6/drivers/fsl_clock.c.obj
 .text.CLOCK_InitSysPll2
                0x0000000000000000       0x74 CMakeFiles/low_power_usecases.elf.dir/home/nxf46594/projects/845/repo/SDK_2.9.1_EVK-MIMX8MM/devices/MIMX8MM6/drivers/fsl_clock.c.obj
 .text.CLOCK_DeinitSysPll2
                0x0000000000000000       0x18 CMakeFiles/low_power_usecases.elf.dir/home/nxf46594/projects/845/repo/SDK_2.9.1_EVK-MIMX8MM/devices/MIMX8MM6/drivers/fsl_clock.c.obj
 .text.CLOCK_InitSysPll3
                0x0000000000000000       0x74 CMakeFiles/low_power_usecases.elf.dir/home/nxf46594/projects/845/repo/SDK_2.9.1_EVK-MIMX8MM/devices/MIMX8MM6/drivers/fsl_clock.c.obj
 .text.CLOCK_DeinitSysPll3
                0x0000000000000000       0x18 CMakeFiles/low_power_usecases.elf.dir/home/nxf46594/projects/845/repo/SDK_2.9.1_EVK-MIMX8MM/devices/MIMX8MM6/drivers/fsl_clock.c.obj
 .text.CLOCK_InitFracPll
                0x0000000000000000      0x15c CMakeFiles/low_power_usecases.elf.dir/home/nxf46594/projects/845/repo/SDK_2.9.1_EVK-MIMX8MM/devices/MIMX8MM6/drivers/fsl_clock.c.obj
 .text.CLOCK_GetFracPllFreq
                0x0000000000000000      0x144 CMakeFiles/low_power_usecases.elf.dir/home/nxf46594/projects/845/repo/SDK_2.9.1_EVK-MIMX8MM/devices/MIMX8MM6/drivers/fsl_clock.c.obj
 .text.CLOCK_InitIntegerPll
                0x0000000000000000      0x14c CMakeFiles/low_power_usecases.elf.dir/home/nxf46594/projects/845/repo/SDK_2.9.1_EVK-MIMX8MM/devices/MIMX8MM6/drivers/fsl_clock.c.obj
 .text.CLOCK_GetIntegerPllFreq
                0x0000000000000000      0x10c CMakeFiles/low_power_usecases.elf.dir/home/nxf46594/projects/845/repo/SDK_2.9.1_EVK-MIMX8MM/devices/MIMX8MM6/drivers/fsl_clock.c.obj
 .text.CLOCK_UpdateRoot
                0x0000000000000000       0x8c CMakeFiles/low_power_usecases.elf.dir/home/nxf46594/projects/845/repo/SDK_2.9.1_EVK-MIMX8MM/devices/MIMX8MM6/drivers/fsl_clock.c.obj
 .rodata.__func__.12
                0x0000000000000000       0x11 CMakeFiles/low_power_usecases.elf.dir/home/nxf46594/projects/845/repo/SDK_2.9.1_EVK-MIMX8MM/devices/MIMX8MM6/drivers/fsl_clock.c.obj
 .rodata.__func__.11
                0x0000000000000000       0x14 CMakeFiles/low_power_usecases.elf.dir/home/nxf46594/projects/845/repo/SDK_2.9.1_EVK-MIMX8MM/devices/MIMX8MM6/drivers/fsl_clock.c.obj
 .rodata.__func__.10
                0x0000000000000000       0x14 CMakeFiles/low_power_usecases.elf.dir/home/nxf46594/projects/845/repo/SDK_2.9.1_EVK-MIMX8MM/devices/MIMX8MM6/drivers/fsl_clock.c.obj
 .rodata.__func__.9
                0x0000000000000000       0x14 CMakeFiles/low_power_usecases.elf.dir/home/nxf46594/projects/845/repo/SDK_2.9.1_EVK-MIMX8MM/devices/MIMX8MM6/drivers/fsl_clock.c.obj
 .rodata.__func__.8
                0x0000000000000000       0x12 CMakeFiles/low_power_usecases.elf.dir/home/nxf46594/projects/845/repo/SDK_2.9.1_EVK-MIMX8MM/devices/MIMX8MM6/drivers/fsl_clock.c.obj
 .rodata.__func__.7
                0x0000000000000000       0x12 CMakeFiles/low_power_usecases.elf.dir/home/nxf46594/projects/845/repo/SDK_2.9.1_EVK-MIMX8MM/devices/MIMX8MM6/drivers/fsl_clock.c.obj
 .rodata.__func__.6
                0x0000000000000000       0x12 CMakeFiles/low_power_usecases.elf.dir/home/nxf46594/projects/845/repo/SDK_2.9.1_EVK-MIMX8MM/devices/MIMX8MM6/drivers/fsl_clock.c.obj
 .rodata.__func__.5
                0x0000000000000000       0x12 CMakeFiles/low_power_usecases.elf.dir/home/nxf46594/projects/845/repo/SDK_2.9.1_EVK-MIMX8MM/devices/MIMX8MM6/drivers/fsl_clock.c.obj
 .rodata.__func__.4
                0x0000000000000000       0x15 CMakeFiles/low_power_usecases.elf.dir/home/nxf46594/projects/845/repo/SDK_2.9.1_EVK-MIMX8MM/devices/MIMX8MM6/drivers/fsl_clock.c.obj
 .rodata.__func__.3
                0x0000000000000000       0x15 CMakeFiles/low_power_usecases.elf.dir/home/nxf46594/projects/845/repo/SDK_2.9.1_EVK-MIMX8MM/devices/MIMX8MM6/drivers/fsl_clock.c.obj
 .rodata.__func__.2
                0x0000000000000000       0x18 CMakeFiles/low_power_usecases.elf.dir/home/nxf46594/projects/845/repo/SDK_2.9.1_EVK-MIMX8MM/devices/MIMX8MM6/drivers/fsl_clock.c.obj
 .rodata.__func__.0
                0x0000000000000000       0x11 CMakeFiles/low_power_usecases.elf.dir/home/nxf46594/projects/845/repo/SDK_2.9.1_EVK-MIMX8MM/devices/MIMX8MM6/drivers/fsl_clock.c.obj
 .text          0x0000000000000000        0x0 CMakeFiles/low_power_usecases.elf.dir/home/nxf46594/projects/845/repo/SDK_2.9.1_EVK-MIMX8MM/rtos/freertos/freertos_kernel/portable/MemMang/heap_4.c.obj
 .data          0x0000000000000000        0x0 CMakeFiles/low_power_usecases.elf.dir/home/nxf46594/projects/845/repo/SDK_2.9.1_EVK-MIMX8MM/rtos/freertos/freertos_kernel/portable/MemMang/heap_4.c.obj
 .bss           0x0000000000000000        0x0 CMakeFiles/low_power_usecases.elf.dir/home/nxf46594/projects/845/repo/SDK_2.9.1_EVK-MIMX8MM/rtos/freertos/freertos_kernel/portable/MemMang/heap_4.c.obj
 .rodata.xHeapStructSize
                0x0000000000000000        0x4 CMakeFiles/low_power_usecases.elf.dir/home/nxf46594/projects/845/repo/SDK_2.9.1_EVK-MIMX8MM/rtos/freertos/freertos_kernel/portable/MemMang/heap_4.c.obj
 .text.xPortGetFreeHeapSize
                0x0000000000000000       0x18 CMakeFiles/low_power_usecases.elf.dir/home/nxf46594/projects/845/repo/SDK_2.9.1_EVK-MIMX8MM/rtos/freertos/freertos_kernel/portable/MemMang/heap_4.c.obj
 .text.xPortGetMinimumEverFreeHeapSize
                0x0000000000000000       0x18 CMakeFiles/low_power_usecases.elf.dir/home/nxf46594/projects/845/repo/SDK_2.9.1_EVK-MIMX8MM/rtos/freertos/freertos_kernel/portable/MemMang/heap_4.c.obj
 .text.vPortInitialiseBlocks
                0x0000000000000000        0xe CMakeFiles/low_power_usecases.elf.dir/home/nxf46594/projects/845/repo/SDK_2.9.1_EVK-MIMX8MM/rtos/freertos/freertos_kernel/portable/MemMang/heap_4.c.obj
 .text.vPortGetHeapStats
                0x0000000000000000       0xbc CMakeFiles/low_power_usecases.elf.dir/home/nxf46594/projects/845/repo/SDK_2.9.1_EVK-MIMX8MM/rtos/freertos/freertos_kernel/portable/MemMang/heap_4.c.obj
 .text          0x0000000000000000        0x0 CMakeFiles/low_power_usecases.elf.dir/home/nxf46594/projects/845/repo/SDK_2.9.1_EVK-MIMX8MM/rtos/freertos/freertos_kernel/event_groups.c.obj
 .data          0x0000000000000000        0x0 CMakeFiles/low_power_usecases.elf.dir/home/nxf46594/projects/845/repo/SDK_2.9.1_EVK-MIMX8MM/rtos/freertos/freertos_kernel/event_groups.c.obj
 .bss           0x0000000000000000        0x0 CMakeFiles/low_power_usecases.elf.dir/home/nxf46594/projects/845/repo/SDK_2.9.1_EVK-MIMX8MM/rtos/freertos/freertos_kernel/event_groups.c.obj
 .text.xEventGroupCreate
                0x0000000000000000       0x2e CMakeFiles/low_power_usecases.elf.dir/home/nxf46594/projects/845/repo/SDK_2.9.1_EVK-MIMX8MM/rtos/freertos/freertos_kernel/event_groups.c.obj
 .text.xEventGroupSync
                0x0000000000000000      0x15c CMakeFiles/low_power_usecases.elf.dir/home/nxf46594/projects/845/repo/SDK_2.9.1_EVK-MIMX8MM/rtos/freertos/freertos_kernel/event_groups.c.obj
 .text.xEventGroupWaitBits
                0x0000000000000000      0x19c CMakeFiles/low_power_usecases.elf.dir/home/nxf46594/projects/845/repo/SDK_2.9.1_EVK-MIMX8MM/rtos/freertos/freertos_kernel/event_groups.c.obj
 .text.xEventGroupClearBits
                0x0000000000000000       0x70 CMakeFiles/low_power_usecases.elf.dir/home/nxf46594/projects/845/repo/SDK_2.9.1_EVK-MIMX8MM/rtos/freertos/freertos_kernel/event_groups.c.obj
 .text.xEventGroupClearBitsFromISR
                0x0000000000000000       0x28 CMakeFiles/low_power_usecases.elf.dir/home/nxf46594/projects/845/repo/SDK_2.9.1_EVK-MIMX8MM/rtos/freertos/freertos_kernel/event_groups.c.obj
 .text.xEventGroupGetBitsFromISR
                0x0000000000000000       0x48 CMakeFiles/low_power_usecases.elf.dir/home/nxf46594/projects/845/repo/SDK_2.9.1_EVK-MIMX8MM/rtos/freertos/freertos_kernel/event_groups.c.obj
 .text.xEventGroupSetBits
                0x0000000000000000      0x116 CMakeFiles/low_power_usecases.elf.dir/home/nxf46594/projects/845/repo/SDK_2.9.1_EVK-MIMX8MM/rtos/freertos/freertos_kernel/event_groups.c.obj
 .text.vEventGroupDelete
                0x0000000000000000       0x62 CMakeFiles/low_power_usecases.elf.dir/home/nxf46594/projects/845/repo/SDK_2.9.1_EVK-MIMX8MM/rtos/freertos/freertos_kernel/event_groups.c.obj
 .text.vEventGroupSetBitsCallback
                0x0000000000000000       0x1a CMakeFiles/low_power_usecases.elf.dir/home/nxf46594/projects/845/repo/SDK_2.9.1_EVK-MIMX8MM/rtos/freertos/freertos_kernel/event_groups.c.obj
 .text.vEventGroupClearBitsCallback
                0x0000000000000000       0x1a CMakeFiles/low_power_usecases.elf.dir/home/nxf46594/projects/845/repo/SDK_2.9.1_EVK-MIMX8MM/rtos/freertos/freertos_kernel/event_groups.c.obj
 .text.prvTestWaitCondition
                0x0000000000000000       0x44 CMakeFiles/low_power_usecases.elf.dir/home/nxf46594/projects/845/repo/SDK_2.9.1_EVK-MIMX8MM/rtos/freertos/freertos_kernel/event_groups.c.obj
 .text.xEventGroupSetBitsFromISR
                0x0000000000000000       0x28 CMakeFiles/low_power_usecases.elf.dir/home/nxf46594/projects/845/repo/SDK_2.9.1_EVK-MIMX8MM/rtos/freertos/freertos_kernel/event_groups.c.obj
 .text.uxEventGroupGetNumber
                0x0000000000000000       0x2c CMakeFiles/low_power_usecases.elf.dir/home/nxf46594/projects/845/repo/SDK_2.9.1_EVK-MIMX8MM/rtos/freertos/freertos_kernel/event_groups.c.obj
 .text.vEventGroupSetNumber
                0x0000000000000000       0x1c CMakeFiles/low_power_usecases.elf.dir/home/nxf46594/projects/845/repo/SDK_2.9.1_EVK-MIMX8MM/rtos/freertos/freertos_kernel/event_groups.c.obj
 .debug_info    0x0000000000000000      0x9a0 CMakeFiles/low_power_usecases.elf.dir/home/nxf46594/projects/845/repo/SDK_2.9.1_EVK-MIMX8MM/rtos/freertos/freertos_kernel/event_groups.c.obj
 .debug_abbrev  0x0000000000000000      0x227 CMakeFiles/low_power_usecases.elf.dir/home/nxf46594/projects/845/repo/SDK_2.9.1_EVK-MIMX8MM/rtos/freertos/freertos_kernel/event_groups.c.obj
 .debug_aranges
                0x0000000000000000       0x88 CMakeFiles/low_power_usecases.elf.dir/home/nxf46594/projects/845/repo/SDK_2.9.1_EVK-MIMX8MM/rtos/freertos/freertos_kernel/event_groups.c.obj
 .debug_ranges  0x0000000000000000       0x78 CMakeFiles/low_power_usecases.elf.dir/home/nxf46594/projects/845/repo/SDK_2.9.1_EVK-MIMX8MM/rtos/freertos/freertos_kernel/event_groups.c.obj
 .debug_line    0x0000000000000000      0x64c CMakeFiles/low_power_usecases.elf.dir/home/nxf46594/projects/845/repo/SDK_2.9.1_EVK-MIMX8MM/rtos/freertos/freertos_kernel/event_groups.c.obj
 .debug_str     0x0000000000000000      0x687 CMakeFiles/low_power_usecases.elf.dir/home/nxf46594/projects/845/repo/SDK_2.9.1_EVK-MIMX8MM/rtos/freertos/freertos_kernel/event_groups.c.obj
 .comment       0x0000000000000000       0x4e CMakeFiles/low_power_usecases.elf.dir/home/nxf46594/projects/845/repo/SDK_2.9.1_EVK-MIMX8MM/rtos/freertos/freertos_kernel/event_groups.c.obj
 .debug_frame   0x0000000000000000      0x218 CMakeFiles/low_power_usecases.elf.dir/home/nxf46594/projects/845/repo/SDK_2.9.1_EVK-MIMX8MM/rtos/freertos/freertos_kernel/event_groups.c.obj
 .ARM.attributes
                0x0000000000000000       0x34 CMakeFiles/low_power_usecases.elf.dir/home/nxf46594/projects/845/repo/SDK_2.9.1_EVK-MIMX8MM/rtos/freertos/freertos_kernel/event_groups.c.obj
 .text          0x0000000000000000        0x0 CMakeFiles/low_power_usecases.elf.dir/home/nxf46594/projects/845/repo/SDK_2.9.1_EVK-MIMX8MM/rtos/freertos/freertos_kernel/croutine.c.obj
 .data          0x0000000000000000        0x0 CMakeFiles/low_power_usecases.elf.dir/home/nxf46594/projects/845/repo/SDK_2.9.1_EVK-MIMX8MM/rtos/freertos/freertos_kernel/croutine.c.obj
 .bss           0x0000000000000000        0x0 CMakeFiles/low_power_usecases.elf.dir/home/nxf46594/projects/845/repo/SDK_2.9.1_EVK-MIMX8MM/rtos/freertos/freertos_kernel/croutine.c.obj
 .debug_info    0x0000000000000000       0x6b CMakeFiles/low_power_usecases.elf.dir/home/nxf46594/projects/845/repo/SDK_2.9.1_EVK-MIMX8MM/rtos/freertos/freertos_kernel/croutine.c.obj
 .debug_abbrev  0x0000000000000000       0x26 CMakeFiles/low_power_usecases.elf.dir/home/nxf46594/projects/845/repo/SDK_2.9.1_EVK-MIMX8MM/rtos/freertos/freertos_kernel/croutine.c.obj
 .debug_aranges
                0x0000000000000000       0x18 CMakeFiles/low_power_usecases.elf.dir/home/nxf46594/projects/845/repo/SDK_2.9.1_EVK-MIMX8MM/rtos/freertos/freertos_kernel/croutine.c.obj
 .debug_line    0x0000000000000000       0x1d CMakeFiles/low_power_usecases.elf.dir/home/nxf46594/projects/845/repo/SDK_2.9.1_EVK-MIMX8MM/rtos/freertos/freertos_kernel/croutine.c.obj
 .debug_str     0x0000000000000000      0x22f CMakeFiles/low_power_usecases.elf.dir/home/nxf46594/projects/845/repo/SDK_2.9.1_EVK-MIMX8MM/rtos/freertos/freertos_kernel/croutine.c.obj
 .comment       0x0000000000000000       0x4e CMakeFiles/low_power_usecases.elf.dir/home/nxf46594/projects/845/repo/SDK_2.9.1_EVK-MIMX8MM/rtos/freertos/freertos_kernel/croutine.c.obj
 .ARM.attributes
                0x0000000000000000       0x39 CMakeFiles/low_power_usecases.elf.dir/home/nxf46594/projects/845/repo/SDK_2.9.1_EVK-MIMX8MM/rtos/freertos/freertos_kernel/croutine.c.obj
 .text          0x0000000000000000        0x0 CMakeFiles/low_power_usecases.elf.dir/home/nxf46594/projects/845/repo/SDK_2.9.1_EVK-MIMX8MM/rtos/freertos/freertos_kernel/list.c.obj
 .data          0x0000000000000000        0x0 CMakeFiles/low_power_usecases.elf.dir/home/nxf46594/projects/845/repo/SDK_2.9.1_EVK-MIMX8MM/rtos/freertos/freertos_kernel/list.c.obj
 .bss           0x0000000000000000        0x0 CMakeFiles/low_power_usecases.elf.dir/home/nxf46594/projects/845/repo/SDK_2.9.1_EVK-MIMX8MM/rtos/freertos/freertos_kernel/list.c.obj
 .text          0x0000000000000000        0x0 CMakeFiles/low_power_usecases.elf.dir/home/nxf46594/projects/845/repo/SDK_2.9.1_EVK-MIMX8MM/rtos/freertos/freertos_kernel/portable/GCC/ARM_CM4F/port.c.obj
 .data          0x0000000000000000        0x0 CMakeFiles/low_power_usecases.elf.dir/home/nxf46594/projects/845/repo/SDK_2.9.1_EVK-MIMX8MM/rtos/freertos/freertos_kernel/portable/GCC/ARM_CM4F/port.c.obj
 .bss           0x0000000000000000        0x0 CMakeFiles/low_power_usecases.elf.dir/home/nxf46594/projects/845/repo/SDK_2.9.1_EVK-MIMX8MM/rtos/freertos/freertos_kernel/portable/GCC/ARM_CM4F/port.c.obj
 .rodata.pcInterruptPriorityRegisters
                0x0000000000000000        0x4 CMakeFiles/low_power_usecases.elf.dir/home/nxf46594/projects/845/repo/SDK_2.9.1_EVK-MIMX8MM/rtos/freertos/freertos_kernel/portable/GCC/ARM_CM4F/port.c.obj
 .text.vPortEndScheduler
                0x0000000000000000       0x38 CMakeFiles/low_power_usecases.elf.dir/home/nxf46594/projects/845/repo/SDK_2.9.1_EVK-MIMX8MM/rtos/freertos/freertos_kernel/portable/GCC/ARM_CM4F/port.c.obj
 .text          0x0000000000000000        0x0 CMakeFiles/low_power_usecases.elf.dir/home/nxf46594/projects/845/repo/SDK_2.9.1_EVK-MIMX8MM/rtos/freertos/freertos_kernel/queue.c.obj
 .data          0x0000000000000000        0x0 CMakeFiles/low_power_usecases.elf.dir/home/nxf46594/projects/845/repo/SDK_2.9.1_EVK-MIMX8MM/rtos/freertos/freertos_kernel/queue.c.obj
 .bss           0x0000000000000000        0x0 CMakeFiles/low_power_usecases.elf.dir/home/nxf46594/projects/845/repo/SDK_2.9.1_EVK-MIMX8MM/rtos/freertos/freertos_kernel/queue.c.obj
 .text.xQueueGiveMutexRecursive
                0x0000000000000000       0x68 CMakeFiles/low_power_usecases.elf.dir/home/nxf46594/projects/845/repo/SDK_2.9.1_EVK-MIMX8MM/rtos/freertos/freertos_kernel/queue.c.obj
 .text.xQueueTakeMutexRecursive
                0x0000000000000000       0x6c CMakeFiles/low_power_usecases.elf.dir/home/nxf46594/projects/845/repo/SDK_2.9.1_EVK-MIMX8MM/rtos/freertos/freertos_kernel/queue.c.obj
 .text.xQueueCreateCountingSemaphore
                0x0000000000000000       0x66 CMakeFiles/low_power_usecases.elf.dir/home/nxf46594/projects/845/repo/SDK_2.9.1_EVK-MIMX8MM/rtos/freertos/freertos_kernel/queue.c.obj
 .text.xQueuePeek
                0x0000000000000000      0x1c4 CMakeFiles/low_power_usecases.elf.dir/home/nxf46594/projects/845/repo/SDK_2.9.1_EVK-MIMX8MM/rtos/freertos/freertos_kernel/queue.c.obj
 .text.xQueueReceiveFromISR
                0x0000000000000000      0x100 CMakeFiles/low_power_usecases.elf.dir/home/nxf46594/projects/845/repo/SDK_2.9.1_EVK-MIMX8MM/rtos/freertos/freertos_kernel/queue.c.obj
 .text.xQueuePeekFromISR
                0x0000000000000000       0xd2 CMakeFiles/low_power_usecases.elf.dir/home/nxf46594/projects/845/repo/SDK_2.9.1_EVK-MIMX8MM/rtos/freertos/freertos_kernel/queue.c.obj
 .text.uxQueueMessagesWaiting
                0x0000000000000000       0x3c CMakeFiles/low_power_usecases.elf.dir/home/nxf46594/projects/845/repo/SDK_2.9.1_EVK-MIMX8MM/rtos/freertos/freertos_kernel/queue.c.obj
 .text.uxQueueSpacesAvailable
                0x0000000000000000       0x46 CMakeFiles/low_power_usecases.elf.dir/home/nxf46594/projects/845/repo/SDK_2.9.1_EVK-MIMX8MM/rtos/freertos/freertos_kernel/queue.c.obj
 .text.uxQueueMessagesWaitingFromISR
                0x0000000000000000       0x3c CMakeFiles/low_power_usecases.elf.dir/home/nxf46594/projects/845/repo/SDK_2.9.1_EVK-MIMX8MM/rtos/freertos/freertos_kernel/queue.c.obj
 .text.uxQueueGetQueueNumber
                0x0000000000000000       0x18 CMakeFiles/low_power_usecases.elf.dir/home/nxf46594/projects/845/repo/SDK_2.9.1_EVK-MIMX8MM/rtos/freertos/freertos_kernel/queue.c.obj
 .text.vQueueSetQueueNumber
                0x0000000000000000       0x1c CMakeFiles/low_power_usecases.elf.dir/home/nxf46594/projects/845/repo/SDK_2.9.1_EVK-MIMX8MM/rtos/freertos/freertos_kernel/queue.c.obj
 .text.ucQueueGetQueueType
                0x0000000000000000       0x1a CMakeFiles/low_power_usecases.elf.dir/home/nxf46594/projects/845/repo/SDK_2.9.1_EVK-MIMX8MM/rtos/freertos/freertos_kernel/queue.c.obj
 .text.xQueueIsQueueEmptyFromISR
                0x0000000000000000       0x48 CMakeFiles/low_power_usecases.elf.dir/home/nxf46594/projects/845/repo/SDK_2.9.1_EVK-MIMX8MM/rtos/freertos/freertos_kernel/queue.c.obj
 .text.xQueueIsQueueFullFromISR
                0x0000000000000000       0x4c CMakeFiles/low_power_usecases.elf.dir/home/nxf46594/projects/845/repo/SDK_2.9.1_EVK-MIMX8MM/rtos/freertos/freertos_kernel/queue.c.obj
 .text.pcQueueGetName
                0x0000000000000000       0x4c CMakeFiles/low_power_usecases.elf.dir/home/nxf46594/projects/845/repo/SDK_2.9.1_EVK-MIMX8MM/rtos/freertos/freertos_kernel/queue.c.obj
 .text          0x0000000000000000        0x0 CMakeFiles/low_power_usecases.elf.dir/home/nxf46594/projects/845/repo/SDK_2.9.1_EVK-MIMX8MM/rtos/freertos/freertos_kernel/stream_buffer.c.obj
 .data          0x0000000000000000        0x0 CMakeFiles/low_power_usecases.elf.dir/home/nxf46594/projects/845/repo/SDK_2.9.1_EVK-MIMX8MM/rtos/freertos/freertos_kernel/stream_buffer.c.obj
 .bss           0x0000000000000000        0x0 CMakeFiles/low_power_usecases.elf.dir/home/nxf46594/projects/845/repo/SDK_2.9.1_EVK-MIMX8MM/rtos/freertos/freertos_kernel/stream_buffer.c.obj
 .text.xStreamBufferGenericCreate
                0x0000000000000000       0xb6 CMakeFiles/low_power_usecases.elf.dir/home/nxf46594/projects/845/repo/SDK_2.9.1_EVK-MIMX8MM/rtos/freertos/freertos_kernel/stream_buffer.c.obj
 .text.vStreamBufferDelete
                0x0000000000000000       0x4e CMakeFiles/low_power_usecases.elf.dir/home/nxf46594/projects/845/repo/SDK_2.9.1_EVK-MIMX8MM/rtos/freertos/freertos_kernel/stream_buffer.c.obj
 .text.xStreamBufferReset
                0x0000000000000000       0x78 CMakeFiles/low_power_usecases.elf.dir/home/nxf46594/projects/845/repo/SDK_2.9.1_EVK-MIMX8MM/rtos/freertos/freertos_kernel/stream_buffer.c.obj
 .text.xStreamBufferSetTriggerLevel
                0x0000000000000000       0x5c CMakeFiles/low_power_usecases.elf.dir/home/nxf46594/projects/845/repo/SDK_2.9.1_EVK-MIMX8MM/rtos/freertos/freertos_kernel/stream_buffer.c.obj
 .text.xStreamBufferSpacesAvailable
                0x0000000000000000       0x66 CMakeFiles/low_power_usecases.elf.dir/home/nxf46594/projects/845/repo/SDK_2.9.1_EVK-MIMX8MM/rtos/freertos/freertos_kernel/stream_buffer.c.obj
 .text.xStreamBufferBytesAvailable
                0x0000000000000000       0x3a CMakeFiles/low_power_usecases.elf.dir/home/nxf46594/projects/845/repo/SDK_2.9.1_EVK-MIMX8MM/rtos/freertos/freertos_kernel/stream_buffer.c.obj
 .text.xStreamBufferSend
                0x0000000000000000      0x16a CMakeFiles/low_power_usecases.elf.dir/home/nxf46594/projects/845/repo/SDK_2.9.1_EVK-MIMX8MM/rtos/freertos/freertos_kernel/stream_buffer.c.obj
 .text.xStreamBufferSendFromISR
                0x0000000000000000       0xe2 CMakeFiles/low_power_usecases.elf.dir/home/nxf46594/projects/845/repo/SDK_2.9.1_EVK-MIMX8MM/rtos/freertos/freertos_kernel/stream_buffer.c.obj
 .text.prvWriteMessageToBuffer
                0x0000000000000000       0x7a CMakeFiles/low_power_usecases.elf.dir/home/nxf46594/projects/845/repo/SDK_2.9.1_EVK-MIMX8MM/rtos/freertos/freertos_kernel/stream_buffer.c.obj
 .text.xStreamBufferReceive
                0x0000000000000000      0x12a CMakeFiles/low_power_usecases.elf.dir/home/nxf46594/projects/845/repo/SDK_2.9.1_EVK-MIMX8MM/rtos/freertos/freertos_kernel/stream_buffer.c.obj
 .text.xStreamBufferNextMessageLengthBytes
                0x0000000000000000       0x92 CMakeFiles/low_power_usecases.elf.dir/home/nxf46594/projects/845/repo/SDK_2.9.1_EVK-MIMX8MM/rtos/freertos/freertos_kernel/stream_buffer.c.obj
 .text.xStreamBufferReceiveFromISR
                0x0000000000000000       0xde CMakeFiles/low_power_usecases.elf.dir/home/nxf46594/projects/845/repo/SDK_2.9.1_EVK-MIMX8MM/rtos/freertos/freertos_kernel/stream_buffer.c.obj
 .text.prvReadMessageFromBuffer
                0x0000000000000000       0x64 CMakeFiles/low_power_usecases.elf.dir/home/nxf46594/projects/845/repo/SDK_2.9.1_EVK-MIMX8MM/rtos/freertos/freertos_kernel/stream_buffer.c.obj
 .text.xStreamBufferIsEmpty
                0x0000000000000000       0x50 CMakeFiles/low_power_usecases.elf.dir/home/nxf46594/projects/845/repo/SDK_2.9.1_EVK-MIMX8MM/rtos/freertos/freertos_kernel/stream_buffer.c.obj
 .text.xStreamBufferIsFull
                0x0000000000000000       0x60 CMakeFiles/low_power_usecases.elf.dir/home/nxf46594/projects/845/repo/SDK_2.9.1_EVK-MIMX8MM/rtos/freertos/freertos_kernel/stream_buffer.c.obj
 .text.xStreamBufferSendCompletedFromISR
                0x0000000000000000       0x86 CMakeFiles/low_power_usecases.elf.dir/home/nxf46594/projects/845/repo/SDK_2.9.1_EVK-MIMX8MM/rtos/freertos/freertos_kernel/stream_buffer.c.obj
 .text.xStreamBufferReceiveCompletedFromISR
                0x0000000000000000       0x86 CMakeFiles/low_power_usecases.elf.dir/home/nxf46594/projects/845/repo/SDK_2.9.1_EVK-MIMX8MM/rtos/freertos/freertos_kernel/stream_buffer.c.obj
 .text.prvWriteBytesToBuffer
                0x0000000000000000       0xe4 CMakeFiles/low_power_usecases.elf.dir/home/nxf46594/projects/845/repo/SDK_2.9.1_EVK-MIMX8MM/rtos/freertos/freertos_kernel/stream_buffer.c.obj
 .text.prvReadBytesFromBuffer
                0x0000000000000000       0xf4 CMakeFiles/low_power_usecases.elf.dir/home/nxf46594/projects/845/repo/SDK_2.9.1_EVK-MIMX8MM/rtos/freertos/freertos_kernel/stream_buffer.c.obj
 .text.prvBytesInBuffer
                0x0000000000000000       0x40 CMakeFiles/low_power_usecases.elf.dir/home/nxf46594/projects/845/repo/SDK_2.9.1_EVK-MIMX8MM/rtos/freertos/freertos_kernel/stream_buffer.c.obj
 .text.prvInitialiseNewStreamBuffer
                0x0000000000000000       0x66 CMakeFiles/low_power_usecases.elf.dir/home/nxf46594/projects/845/repo/SDK_2.9.1_EVK-MIMX8MM/rtos/freertos/freertos_kernel/stream_buffer.c.obj
 .text.uxStreamBufferGetStreamBufferNumber
                0x0000000000000000       0x18 CMakeFiles/low_power_usecases.elf.dir/home/nxf46594/projects/845/repo/SDK_2.9.1_EVK-MIMX8MM/rtos/freertos/freertos_kernel/stream_buffer.c.obj
 .text.vStreamBufferSetStreamBufferNumber
                0x0000000000000000       0x1c CMakeFiles/low_power_usecases.elf.dir/home/nxf46594/projects/845/repo/SDK_2.9.1_EVK-MIMX8MM/rtos/freertos/freertos_kernel/stream_buffer.c.obj
 .text.ucStreamBufferGetStreamBufferType
                0x0000000000000000       0x1e CMakeFiles/low_power_usecases.elf.dir/home/nxf46594/projects/845/repo/SDK_2.9.1_EVK-MIMX8MM/rtos/freertos/freertos_kernel/stream_buffer.c.obj
 .debug_info    0x0000000000000000     0x1133 CMakeFiles/low_power_usecases.elf.dir/home/nxf46594/projects/845/repo/SDK_2.9.1_EVK-MIMX8MM/rtos/freertos/freertos_kernel/stream_buffer.c.obj
 .debug_abbrev  0x0000000000000000      0x290 CMakeFiles/low_power_usecases.elf.dir/home/nxf46594/projects/845/repo/SDK_2.9.1_EVK-MIMX8MM/rtos/freertos/freertos_kernel/stream_buffer.c.obj
 .debug_aranges
                0x0000000000000000       0xd8 CMakeFiles/low_power_usecases.elf.dir/home/nxf46594/projects/845/repo/SDK_2.9.1_EVK-MIMX8MM/rtos/freertos/freertos_kernel/stream_buffer.c.obj
 .debug_ranges  0x0000000000000000       0xc8 CMakeFiles/low_power_usecases.elf.dir/home/nxf46594/projects/845/repo/SDK_2.9.1_EVK-MIMX8MM/rtos/freertos/freertos_kernel/stream_buffer.c.obj
 .debug_line    0x0000000000000000      0xabd CMakeFiles/low_power_usecases.elf.dir/home/nxf46594/projects/845/repo/SDK_2.9.1_EVK-MIMX8MM/rtos/freertos/freertos_kernel/stream_buffer.c.obj
 .debug_str     0x0000000000000000      0x86b CMakeFiles/low_power_usecases.elf.dir/home/nxf46594/projects/845/repo/SDK_2.9.1_EVK-MIMX8MM/rtos/freertos/freertos_kernel/stream_buffer.c.obj
 .comment       0x0000000000000000       0x4e CMakeFiles/low_power_usecases.elf.dir/home/nxf46594/projects/845/repo/SDK_2.9.1_EVK-MIMX8MM/rtos/freertos/freertos_kernel/stream_buffer.c.obj
 .debug_frame   0x0000000000000000      0x3a0 CMakeFiles/low_power_usecases.elf.dir/home/nxf46594/projects/845/repo/SDK_2.9.1_EVK-MIMX8MM/rtos/freertos/freertos_kernel/stream_buffer.c.obj
 .ARM.attributes
                0x0000000000000000       0x34 CMakeFiles/low_power_usecases.elf.dir/home/nxf46594/projects/845/repo/SDK_2.9.1_EVK-MIMX8MM/rtos/freertos/freertos_kernel/stream_buffer.c.obj
 .text          0x0000000000000000        0x0 CMakeFiles/low_power_usecases.elf.dir/home/nxf46594/projects/845/repo/SDK_2.9.1_EVK-MIMX8MM/rtos/freertos/freertos_kernel/tasks.c.obj
 .data          0x0000000000000000        0x0 CMakeFiles/low_power_usecases.elf.dir/home/nxf46594/projects/845/repo/SDK_2.9.1_EVK-MIMX8MM/rtos/freertos/freertos_kernel/tasks.c.obj
 .bss           0x0000000000000000        0x0 CMakeFiles/low_power_usecases.elf.dir/home/nxf46594/projects/845/repo/SDK_2.9.1_EVK-MIMX8MM/rtos/freertos/freertos_kernel/tasks.c.obj
 .text.vTaskDelete
                0x0000000000000000      0x120 CMakeFiles/low_power_usecases.elf.dir/home/nxf46594/projects/845/repo/SDK_2.9.1_EVK-MIMX8MM/rtos/freertos/freertos_kernel/tasks.c.obj
 .text.vTaskDelayUntil
                0x0000000000000000       0xfc CMakeFiles/low_power_usecases.elf.dir/home/nxf46594/projects/845/repo/SDK_2.9.1_EVK-MIMX8MM/rtos/freertos/freertos_kernel/tasks.c.obj
 .text.vTaskDelay
                0x0000000000000000       0x68 CMakeFiles/low_power_usecases.elf.dir/home/nxf46594/projects/845/repo/SDK_2.9.1_EVK-MIMX8MM/rtos/freertos/freertos_kernel/tasks.c.obj
 .text.uxTaskPriorityGet
                0x0000000000000000       0x34 CMakeFiles/low_power_usecases.elf.dir/home/nxf46594/projects/845/repo/SDK_2.9.1_EVK-MIMX8MM/rtos/freertos/freertos_kernel/tasks.c.obj
 .text.uxTaskPriorityGetFromISR
                0x0000000000000000       0x58 CMakeFiles/low_power_usecases.elf.dir/home/nxf46594/projects/845/repo/SDK_2.9.1_EVK-MIMX8MM/rtos/freertos/freertos_kernel/tasks.c.obj
 .text.vTaskPrioritySet
                0x0000000000000000      0x154 CMakeFiles/low_power_usecases.elf.dir/home/nxf46594/projects/845/repo/SDK_2.9.1_EVK-MIMX8MM/rtos/freertos/freertos_kernel/tasks.c.obj
 .text.vTaskSuspend
                0x0000000000000000      0x124 CMakeFiles/low_power_usecases.elf.dir/home/nxf46594/projects/845/repo/SDK_2.9.1_EVK-MIMX8MM/rtos/freertos/freertos_kernel/tasks.c.obj
 .text.prvTaskIsTaskSuspended
                0x0000000000000000       0x64 CMakeFiles/low_power_usecases.elf.dir/home/nxf46594/projects/845/repo/SDK_2.9.1_EVK-MIMX8MM/rtos/freertos/freertos_kernel/tasks.c.obj
 .text.vTaskResume
                0x0000000000000000       0xbc CMakeFiles/low_power_usecases.elf.dir/home/nxf46594/projects/845/repo/SDK_2.9.1_EVK-MIMX8MM/rtos/freertos/freertos_kernel/tasks.c.obj
 .text.xTaskResumeFromISR
                0x0000000000000000       0xe4 CMakeFiles/low_power_usecases.elf.dir/home/nxf46594/projects/845/repo/SDK_2.9.1_EVK-MIMX8MM/rtos/freertos/freertos_kernel/tasks.c.obj
 .text.vTaskEndScheduler
                0x0000000000000000       0x30 CMakeFiles/low_power_usecases.elf.dir/home/nxf46594/projects/845/repo/SDK_2.9.1_EVK-MIMX8MM/rtos/freertos/freertos_kernel/tasks.c.obj
 .text.xTaskGetTickCountFromISR
                0x0000000000000000       0x24 CMakeFiles/low_power_usecases.elf.dir/home/nxf46594/projects/845/repo/SDK_2.9.1_EVK-MIMX8MM/rtos/freertos/freertos_kernel/tasks.c.obj
 .text.uxTaskGetNumberOfTasks
                0x0000000000000000       0x18 CMakeFiles/low_power_usecases.elf.dir/home/nxf46594/projects/845/repo/SDK_2.9.1_EVK-MIMX8MM/rtos/freertos/freertos_kernel/tasks.c.obj
 .text.pcTaskGetName
                0x0000000000000000       0x48 CMakeFiles/low_power_usecases.elf.dir/home/nxf46594/projects/845/repo/SDK_2.9.1_EVK-MIMX8MM/rtos/freertos/freertos_kernel/tasks.c.obj
 .text.xTaskCatchUpTicks
                0x0000000000000000       0x54 CMakeFiles/low_power_usecases.elf.dir/home/nxf46594/projects/845/repo/SDK_2.9.1_EVK-MIMX8MM/rtos/freertos/freertos_kernel/tasks.c.obj
 .text.vTaskPlaceOnUnorderedEventList
                0x0000000000000000       0x78 CMakeFiles/low_power_usecases.elf.dir/home/nxf46594/projects/845/repo/SDK_2.9.1_EVK-MIMX8MM/rtos/freertos/freertos_kernel/tasks.c.obj
 .text.vTaskRemoveFromUnorderedEventList
                0x0000000000000000       0xc4 CMakeFiles/low_power_usecases.elf.dir/home/nxf46594/projects/845/repo/SDK_2.9.1_EVK-MIMX8MM/rtos/freertos/freertos_kernel/tasks.c.obj
 .text.vTaskSetTimeOutState
                0x0000000000000000       0x4c CMakeFiles/low_power_usecases.elf.dir/home/nxf46594/projects/845/repo/SDK_2.9.1_EVK-MIMX8MM/rtos/freertos/freertos_kernel/tasks.c.obj
 .text.uxTaskGetTaskNumber
                0x0000000000000000       0x2c CMakeFiles/low_power_usecases.elf.dir/home/nxf46594/projects/845/repo/SDK_2.9.1_EVK-MIMX8MM/rtos/freertos/freertos_kernel/tasks.c.obj
 .text.vTaskSetTaskNumber
                0x0000000000000000       0x26 CMakeFiles/low_power_usecases.elf.dir/home/nxf46594/projects/845/repo/SDK_2.9.1_EVK-MIMX8MM/rtos/freertos/freertos_kernel/tasks.c.obj
 .text.vTaskSetThreadLocalStoragePointer
                0x0000000000000000       0x5c CMakeFiles/low_power_usecases.elf.dir/home/nxf46594/projects/845/repo/SDK_2.9.1_EVK-MIMX8MM/rtos/freertos/freertos_kernel/tasks.c.obj
 .text.pvTaskGetThreadLocalStoragePointer
                0x0000000000000000       0x4c CMakeFiles/low_power_usecases.elf.dir/home/nxf46594/projects/845/repo/SDK_2.9.1_EVK-MIMX8MM/rtos/freertos/freertos_kernel/tasks.c.obj
 .text.xTaskGetCurrentTaskHandle
                0x0000000000000000       0x20 CMakeFiles/low_power_usecases.elf.dir/home/nxf46594/projects/845/repo/SDK_2.9.1_EVK-MIMX8MM/rtos/freertos/freertos_kernel/tasks.c.obj
 .text.vTaskList
                0x0000000000000000      0x12c CMakeFiles/low_power_usecases.elf.dir/home/nxf46594/projects/845/repo/SDK_2.9.1_EVK-MIMX8MM/rtos/freertos/freertos_kernel/tasks.c.obj
 .text.uxTaskResetEventItemValue
                0x0000000000000000       0x30 CMakeFiles/low_power_usecases.elf.dir/home/nxf46594/projects/845/repo/SDK_2.9.1_EVK-MIMX8MM/rtos/freertos/freertos_kernel/tasks.c.obj
 .text.xTaskNotifyWait
                0x0000000000000000       0xb4 CMakeFiles/low_power_usecases.elf.dir/home/nxf46594/projects/845/repo/SDK_2.9.1_EVK-MIMX8MM/rtos/freertos/freertos_kernel/tasks.c.obj
 .text.xTaskGenericNotifyFromISR
                0x0000000000000000      0x1b4 CMakeFiles/low_power_usecases.elf.dir/home/nxf46594/projects/845/repo/SDK_2.9.1_EVK-MIMX8MM/rtos/freertos/freertos_kernel/tasks.c.obj
 .text.vTaskNotifyGiveFromISR
                0x0000000000000000      0x190 CMakeFiles/low_power_usecases.elf.dir/home/nxf46594/projects/845/repo/SDK_2.9.1_EVK-MIMX8MM/rtos/freertos/freertos_kernel/tasks.c.obj
 .text.xTaskNotifyStateClear
                0x0000000000000000       0x4c CMakeFiles/low_power_usecases.elf.dir/home/nxf46594/projects/845/repo/SDK_2.9.1_EVK-MIMX8MM/rtos/freertos/freertos_kernel/tasks.c.obj
 .text.ulTaskNotifyValueClear
                0x0000000000000000       0x48 CMakeFiles/low_power_usecases.elf.dir/home/nxf46594/projects/845/repo/SDK_2.9.1_EVK-MIMX8MM/rtos/freertos/freertos_kernel/tasks.c.obj
 .rodata.__func__.0
                0x0000000000000000       0x17 CMakeFiles/low_power_usecases.elf.dir/home/nxf46594/projects/845/repo/SDK_2.9.1_EVK-MIMX8MM/rtos/freertos/freertos_kernel/tasks.c.obj
 .text          0x0000000000000000        0x0 CMakeFiles/low_power_usecases.elf.dir/home/nxf46594/projects/845/repo/SDK_2.9.1_EVK-MIMX8MM/rtos/freertos/freertos_kernel/timers.c.obj
 .data          0x0000000000000000        0x0 CMakeFiles/low_power_usecases.elf.dir/home/nxf46594/projects/845/repo/SDK_2.9.1_EVK-MIMX8MM/rtos/freertos/freertos_kernel/timers.c.obj
 .bss           0x0000000000000000        0x0 CMakeFiles/low_power_usecases.elf.dir/home/nxf46594/projects/845/repo/SDK_2.9.1_EVK-MIMX8MM/rtos/freertos/freertos_kernel/timers.c.obj
 .text.xTimerCreate
                0x0000000000000000       0x42 CMakeFiles/low_power_usecases.elf.dir/home/nxf46594/projects/845/repo/SDK_2.9.1_EVK-MIMX8MM/rtos/freertos/freertos_kernel/timers.c.obj
 .text.prvInitialiseNewTimer
                0x0000000000000000       0x76 CMakeFiles/low_power_usecases.elf.dir/home/nxf46594/projects/845/repo/SDK_2.9.1_EVK-MIMX8MM/rtos/freertos/freertos_kernel/timers.c.obj
 .text.xTimerGetTimerDaemonTaskHandle
                0x0000000000000000       0x38 CMakeFiles/low_power_usecases.elf.dir/home/nxf46594/projects/845/repo/SDK_2.9.1_EVK-MIMX8MM/rtos/freertos/freertos_kernel/timers.c.obj
 .text.xTimerGetPeriod
                0x0000000000000000       0x38 CMakeFiles/low_power_usecases.elf.dir/home/nxf46594/projects/845/repo/SDK_2.9.1_EVK-MIMX8MM/rtos/freertos/freertos_kernel/timers.c.obj
 .text.vTimerSetReloadMode
                0x0000000000000000       0x66 CMakeFiles/low_power_usecases.elf.dir/home/nxf46594/projects/845/repo/SDK_2.9.1_EVK-MIMX8MM/rtos/freertos/freertos_kernel/timers.c.obj
 .text.uxTimerGetReloadMode
                0x0000000000000000       0x52 CMakeFiles/low_power_usecases.elf.dir/home/nxf46594/projects/845/repo/SDK_2.9.1_EVK-MIMX8MM/rtos/freertos/freertos_kernel/timers.c.obj
 .text.xTimerGetExpiryTime
                0x0000000000000000       0x3c CMakeFiles/low_power_usecases.elf.dir/home/nxf46594/projects/845/repo/SDK_2.9.1_EVK-MIMX8MM/rtos/freertos/freertos_kernel/timers.c.obj
 .text.pcTimerGetName
                0x0000000000000000       0x38 CMakeFiles/low_power_usecases.elf.dir/home/nxf46594/projects/845/repo/SDK_2.9.1_EVK-MIMX8MM/rtos/freertos/freertos_kernel/timers.c.obj
 .text.xTimerIsTimerActive
                0x0000000000000000       0x52 CMakeFiles/low_power_usecases.elf.dir/home/nxf46594/projects/845/repo/SDK_2.9.1_EVK-MIMX8MM/rtos/freertos/freertos_kernel/timers.c.obj
 .text.pvTimerGetTimerID
                0x0000000000000000       0x40 CMakeFiles/low_power_usecases.elf.dir/home/nxf46594/projects/845/repo/SDK_2.9.1_EVK-MIMX8MM/rtos/freertos/freertos_kernel/timers.c.obj
 .text.vTimerSetTimerID
                0x0000000000000000       0x40 CMakeFiles/low_power_usecases.elf.dir/home/nxf46594/projects/845/repo/SDK_2.9.1_EVK-MIMX8MM/rtos/freertos/freertos_kernel/timers.c.obj
 .text.xTimerPendFunctionCallFromISR
                0x0000000000000000       0x40 CMakeFiles/low_power_usecases.elf.dir/home/nxf46594/projects/845/repo/SDK_2.9.1_EVK-MIMX8MM/rtos/freertos/freertos_kernel/timers.c.obj
 .text.xTimerPendFunctionCall
                0x0000000000000000       0x60 CMakeFiles/low_power_usecases.elf.dir/home/nxf46594/projects/845/repo/SDK_2.9.1_EVK-MIMX8MM/rtos/freertos/freertos_kernel/timers.c.obj
 .text.uxTimerGetTimerNumber
                0x0000000000000000       0x18 CMakeFiles/low_power_usecases.elf.dir/home/nxf46594/projects/845/repo/SDK_2.9.1_EVK-MIMX8MM/rtos/freertos/freertos_kernel/timers.c.obj
 .text.vTimerSetTimerNumber
                0x0000000000000000       0x1c CMakeFiles/low_power_usecases.elf.dir/home/nxf46594/projects/845/repo/SDK_2.9.1_EVK-MIMX8MM/rtos/freertos/freertos_kernel/timers.c.obj
 .text          0x0000000000000000        0x0 CMakeFiles/low_power_usecases.elf.dir/home/nxf46594/projects/845/repo/SDK_2.9.1_EVK-MIMX8MM/devices/MIMX8MM6/drivers/fsl_rdc.c.obj
 .data          0x0000000000000000        0x0 CMakeFiles/low_power_usecases.elf.dir/home/nxf46594/projects/845/repo/SDK_2.9.1_EVK-MIMX8MM/devices/MIMX8MM6/drivers/fsl_rdc.c.obj
 .bss           0x0000000000000000        0x0 CMakeFiles/low_power_usecases.elf.dir/home/nxf46594/projects/845/repo/SDK_2.9.1_EVK-MIMX8MM/devices/MIMX8MM6/drivers/fsl_rdc.c.obj
 .rodata.s_rdcBases
                0x0000000000000000        0x4 CMakeFiles/low_power_usecases.elf.dir/home/nxf46594/projects/845/repo/SDK_2.9.1_EVK-MIMX8MM/devices/MIMX8MM6/drivers/fsl_rdc.c.obj
 .rodata.s_rdcClocks
                0x0000000000000000        0x4 CMakeFiles/low_power_usecases.elf.dir/home/nxf46594/projects/845/repo/SDK_2.9.1_EVK-MIMX8MM/devices/MIMX8MM6/drivers/fsl_rdc.c.obj
 .text.RDC_GetInstance
                0x0000000000000000       0x54 CMakeFiles/low_power_usecases.elf.dir/home/nxf46594/projects/845/repo/SDK_2.9.1_EVK-MIMX8MM/devices/MIMX8MM6/drivers/fsl_rdc.c.obj
 .text.RDC_Init
                0x0000000000000000       0x24 CMakeFiles/low_power_usecases.elf.dir/home/nxf46594/projects/845/repo/SDK_2.9.1_EVK-MIMX8MM/devices/MIMX8MM6/drivers/fsl_rdc.c.obj
 .text.RDC_Deinit
                0x0000000000000000       0x24 CMakeFiles/low_power_usecases.elf.dir/home/nxf46594/projects/845/repo/SDK_2.9.1_EVK-MIMX8MM/devices/MIMX8MM6/drivers/fsl_rdc.c.obj
 .text.RDC_GetHardwareConfig
                0x0000000000000000       0x3c CMakeFiles/low_power_usecases.elf.dir/home/nxf46594/projects/845/repo/SDK_2.9.1_EVK-MIMX8MM/devices/MIMX8MM6/drivers/fsl_rdc.c.obj
 .text.RDC_GetDefaultMasterDomainAssignment
                0x0000000000000000       0x38 CMakeFiles/low_power_usecases.elf.dir/home/nxf46594/projects/845/repo/SDK_2.9.1_EVK-MIMX8MM/devices/MIMX8MM6/drivers/fsl_rdc.c.obj
 .text.RDC_SetMemAccessConfig
                0x0000000000000000       0x94 CMakeFiles/low_power_usecases.elf.dir/home/nxf46594/projects/845/repo/SDK_2.9.1_EVK-MIMX8MM/devices/MIMX8MM6/drivers/fsl_rdc.c.obj
 .text.RDC_GetDefaultMemAccessConfig
                0x0000000000000000       0x64 CMakeFiles/low_power_usecases.elf.dir/home/nxf46594/projects/845/repo/SDK_2.9.1_EVK-MIMX8MM/devices/MIMX8MM6/drivers/fsl_rdc.c.obj
 .text.RDC_GetMemViolationStatus
                0x0000000000000000       0x80 CMakeFiles/low_power_usecases.elf.dir/home/nxf46594/projects/845/repo/SDK_2.9.1_EVK-MIMX8MM/devices/MIMX8MM6/drivers/fsl_rdc.c.obj
 .rodata.__func__.8
                0x0000000000000000       0x10 CMakeFiles/low_power_usecases.elf.dir/home/nxf46594/projects/845/repo/SDK_2.9.1_EVK-MIMX8MM/devices/MIMX8MM6/drivers/fsl_rdc.c.obj
 .rodata.__func__.7
                0x0000000000000000       0x16 CMakeFiles/low_power_usecases.elf.dir/home/nxf46594/projects/845/repo/SDK_2.9.1_EVK-MIMX8MM/devices/MIMX8MM6/drivers/fsl_rdc.c.obj
 .rodata.__func__.5
                0x0000000000000000       0x25 CMakeFiles/low_power_usecases.elf.dir/home/nxf46594/projects/845/repo/SDK_2.9.1_EVK-MIMX8MM/devices/MIMX8MM6/drivers/fsl_rdc.c.obj
 .rodata.__func__.2
                0x0000000000000000       0x17 CMakeFiles/low_power_usecases.elf.dir/home/nxf46594/projects/845/repo/SDK_2.9.1_EVK-MIMX8MM/devices/MIMX8MM6/drivers/fsl_rdc.c.obj
 .rodata.__func__.1
                0x0000000000000000       0x1e CMakeFiles/low_power_usecases.elf.dir/home/nxf46594/projects/845/repo/SDK_2.9.1_EVK-MIMX8MM/devices/MIMX8MM6/drivers/fsl_rdc.c.obj
 .rodata.__func__.0
                0x0000000000000000       0x1a CMakeFiles/low_power_usecases.elf.dir/home/nxf46594/projects/845/repo/SDK_2.9.1_EVK-MIMX8MM/devices/MIMX8MM6/drivers/fsl_rdc.c.obj
 .text          0x0000000000000000        0x0 CMakeFiles/low_power_usecases.elf.dir/home/nxf46594/projects/845/repo/SDK_2.9.1_EVK-MIMX8MM/devices/MIMX8MM6/utilities/str/fsl_str.c.obj
 .data          0x0000000000000000        0x0 CMakeFiles/low_power_usecases.elf.dir/home/nxf46594/projects/845/repo/SDK_2.9.1_EVK-MIMX8MM/devices/MIMX8MM6/utilities/str/fsl_str.c.obj
 .bss           0x0000000000000000        0x0 CMakeFiles/low_power_usecases.elf.dir/home/nxf46594/projects/845/repo/SDK_2.9.1_EVK-MIMX8MM/devices/MIMX8MM6/utilities/str/fsl_str.c.obj
 .text.ScanIsWhiteSpace
                0x0000000000000000       0x44 CMakeFiles/low_power_usecases.elf.dir/home/nxf46594/projects/845/repo/SDK_2.9.1_EVK-MIMX8MM/devices/MIMX8MM6/utilities/str/fsl_str.c.obj
 .text.ScanIgnoreWhiteSpace
                0x0000000000000000       0x46 CMakeFiles/low_power_usecases.elf.dir/home/nxf46594/projects/845/repo/SDK_2.9.1_EVK-MIMX8MM/devices/MIMX8MM6/utilities/str/fsl_str.c.obj
 .text.StrFormatScanIsFormatStarting
                0x0000000000000000       0x36 CMakeFiles/low_power_usecases.elf.dir/home/nxf46594/projects/845/repo/SDK_2.9.1_EVK-MIMX8MM/devices/MIMX8MM6/utilities/str/fsl_str.c.obj
 .text.StrFormatScanGetBase
                0x0000000000000000       0x4c CMakeFiles/low_power_usecases.elf.dir/home/nxf46594/projects/845/repo/SDK_2.9.1_EVK-MIMX8MM/devices/MIMX8MM6/utilities/str/fsl_str.c.obj
 .text.StrFormatScanCheckSymbol
                0x0000000000000000       0x48 CMakeFiles/low_power_usecases.elf.dir/home/nxf46594/projects/845/repo/SDK_2.9.1_EVK-MIMX8MM/devices/MIMX8MM6/utilities/str/fsl_str.c.obj
 .text.StrFormatScanFillInteger
                0x0000000000000000       0x46 CMakeFiles/low_power_usecases.elf.dir/home/nxf46594/projects/845/repo/SDK_2.9.1_EVK-MIMX8MM/devices/MIMX8MM6/utilities/str/fsl_str.c.obj
 .text.StrFormatScanfStringHandling
                0x0000000000000000      0x18a CMakeFiles/low_power_usecases.elf.dir/home/nxf46594/projects/845/repo/SDK_2.9.1_EVK-MIMX8MM/devices/MIMX8MM6/utilities/str/fsl_str.c.obj
 .text.StrFormatScanf
                0x0000000000000000      0x2e6 CMakeFiles/low_power_usecases.elf.dir/home/nxf46594/projects/845/repo/SDK_2.9.1_EVK-MIMX8MM/devices/MIMX8MM6/utilities/str/fsl_str.c.obj
 .text          0x0000000000000000        0x0 CMakeFiles/low_power_usecases.elf.dir/home/nxf46594/projects/845/repo/SDK_2.9.1_EVK-MIMX8MM/devices/MIMX8MM6/utilities/debug_console/fsl_debug_console.c.obj
 .data          0x0000000000000000        0x0 CMakeFiles/low_power_usecases.elf.dir/home/nxf46594/projects/845/repo/SDK_2.9.1_EVK-MIMX8MM/devices/MIMX8MM6/utilities/debug_console/fsl_debug_console.c.obj
 .bss           0x0000000000000000        0x0 CMakeFiles/low_power_usecases.elf.dir/home/nxf46594/projects/845/repo/SDK_2.9.1_EVK-MIMX8MM/devices/MIMX8MM6/utilities/debug_console/fsl_debug_console.c.obj
 .text.DbgConsole_SendData
                0x0000000000000000       0x40 CMakeFiles/low_power_usecases.elf.dir/home/nxf46594/projects/845/repo/SDK_2.9.1_EVK-MIMX8MM/devices/MIMX8MM6/utilities/debug_console/fsl_debug_console.c.obj
 .text.DbgConsole_ReadLine
                0x0000000000000000       0xa8 CMakeFiles/low_power_usecases.elf.dir/home/nxf46594/projects/845/repo/SDK_2.9.1_EVK-MIMX8MM/devices/MIMX8MM6/utilities/debug_console/fsl_debug_console.c.obj
 .text.DbgConsole_EnterLowpower
                0x0000000000000000       0x30 CMakeFiles/low_power_usecases.elf.dir/home/nxf46594/projects/845/repo/SDK_2.9.1_EVK-MIMX8MM/devices/MIMX8MM6/utilities/debug_console/fsl_debug_console.c.obj
 .text.DbgConsole_ExitLowpower
                0x0000000000000000       0x30 CMakeFiles/low_power_usecases.elf.dir/home/nxf46594/projects/845/repo/SDK_2.9.1_EVK-MIMX8MM/devices/MIMX8MM6/utilities/debug_console/fsl_debug_console.c.obj
 .text.DbgConsole_Flush
                0x0000000000000000       0x10 CMakeFiles/low_power_usecases.elf.dir/home/nxf46594/projects/845/repo/SDK_2.9.1_EVK-MIMX8MM/devices/MIMX8MM6/utilities/debug_console/fsl_debug_console.c.obj
 .text.DbgConsole_Putchar
                0x0000000000000000       0x1c CMakeFiles/low_power_usecases.elf.dir/home/nxf46594/projects/845/repo/SDK_2.9.1_EVK-MIMX8MM/devices/MIMX8MM6/utilities/debug_console/fsl_debug_console.c.obj
 .text.DbgConsole_Scanf
                0x0000000000000000       0x48 CMakeFiles/low_power_usecases.elf.dir/home/nxf46594/projects/845/repo/SDK_2.9.1_EVK-MIMX8MM/devices/MIMX8MM6/utilities/debug_console/fsl_debug_console.c.obj
 .text.DbgConsole_BlockingPrintf
                0x0000000000000000       0x94 CMakeFiles/low_power_usecases.elf.dir/home/nxf46594/projects/845/repo/SDK_2.9.1_EVK-MIMX8MM/devices/MIMX8MM6/utilities/debug_console/fsl_debug_console.c.obj
 .text          0x0000000000000000        0x0 CMakeFiles/low_power_usecases.elf.dir/home/nxf46594/projects/845/repo/SDK_2.9.1_EVK-MIMX8MM/components/serial_manager/fsl_component_serial_manager.c.obj
 .data          0x0000000000000000        0x0 CMakeFiles/low_power_usecases.elf.dir/home/nxf46594/projects/845/repo/SDK_2.9.1_EVK-MIMX8MM/components/serial_manager/fsl_component_serial_manager.c.obj
 .bss           0x0000000000000000        0x0 CMakeFiles/low_power_usecases.elf.dir/home/nxf46594/projects/845/repo/SDK_2.9.1_EVK-MIMX8MM/components/serial_manager/fsl_component_serial_manager.c.obj
 .text.SerialManager_EnterLowpower
                0x0000000000000000       0x3c CMakeFiles/low_power_usecases.elf.dir/home/nxf46594/projects/845/repo/SDK_2.9.1_EVK-MIMX8MM/components/serial_manager/fsl_component_serial_manager.c.obj
 .text.SerialManager_ExitLowpower
                0x0000000000000000       0x3c CMakeFiles/low_power_usecases.elf.dir/home/nxf46594/projects/845/repo/SDK_2.9.1_EVK-MIMX8MM/components/serial_manager/fsl_component_serial_manager.c.obj
 .text          0x0000000000000000        0x0 CMakeFiles/low_power_usecases.elf.dir/home/nxf46594/projects/845/repo/SDK_2.9.1_EVK-MIMX8MM/components/serial_manager/fsl_component_serial_port_uart.c.obj
 .data          0x0000000000000000        0x0 CMakeFiles/low_power_usecases.elf.dir/home/nxf46594/projects/845/repo/SDK_2.9.1_EVK-MIMX8MM/components/serial_manager/fsl_component_serial_port_uart.c.obj
 .bss           0x0000000000000000        0x0 CMakeFiles/low_power_usecases.elf.dir/home/nxf46594/projects/845/repo/SDK_2.9.1_EVK-MIMX8MM/components/serial_manager/fsl_component_serial_port_uart.c.obj
 .text.Serial_UartEnterLowpower
                0x0000000000000000       0x2e CMakeFiles/low_power_usecases.elf.dir/home/nxf46594/projects/845/repo/SDK_2.9.1_EVK-MIMX8MM/components/serial_manager/fsl_component_serial_port_uart.c.obj
 .text.Serial_UartExitLowpower
                0x0000000000000000       0x32 CMakeFiles/low_power_usecases.elf.dir/home/nxf46594/projects/845/repo/SDK_2.9.1_EVK-MIMX8MM/components/serial_manager/fsl_component_serial_port_uart.c.obj
 .text          0x0000000000000000        0x0 CMakeFiles/low_power_usecases.elf.dir/home/nxf46594/projects/845/repo/SDK_2.9.1_EVK-MIMX8MM/devices/MIMX8MM6/drivers/fsl_uart.c.obj
 .data          0x0000000000000000        0x0 CMakeFiles/low_power_usecases.elf.dir/home/nxf46594/projects/845/repo/SDK_2.9.1_EVK-MIMX8MM/devices/MIMX8MM6/drivers/fsl_uart.c.obj
 .bss           0x0000000000000000        0x0 CMakeFiles/low_power_usecases.elf.dir/home/nxf46594/projects/845/repo/SDK_2.9.1_EVK-MIMX8MM/devices/MIMX8MM6/drivers/fsl_uart.c.obj
 .text.__NVIC_EnableIRQ
                0x0000000000000000       0x3c CMakeFiles/low_power_usecases.elf.dir/home/nxf46594/projects/845/repo/SDK_2.9.1_EVK-MIMX8MM/devices/MIMX8MM6/drivers/fsl_uart.c.obj
 .text.EnableIRQ
                0x0000000000000000       0x32 CMakeFiles/low_power_usecases.elf.dir/home/nxf46594/projects/845/repo/SDK_2.9.1_EVK-MIMX8MM/devices/MIMX8MM6/drivers/fsl_uart.c.obj
 .rodata.s_uartIRQ
                0x0000000000000000        0x5 CMakeFiles/low_power_usecases.elf.dir/home/nxf46594/projects/845/repo/SDK_2.9.1_EVK-MIMX8MM/devices/MIMX8MM6/drivers/fsl_uart.c.obj
 .text.UART_TransferGetRxRingBufferLength
                0x0000000000000000       0x6c CMakeFiles/low_power_usecases.elf.dir/home/nxf46594/projects/845/repo/SDK_2.9.1_EVK-MIMX8MM/devices/MIMX8MM6/drivers/fsl_uart.c.obj
 .text.UART_TransferIsRxRingBufferFull
                0x0000000000000000       0x4c CMakeFiles/low_power_usecases.elf.dir/home/nxf46594/projects/845/repo/SDK_2.9.1_EVK-MIMX8MM/devices/MIMX8MM6/drivers/fsl_uart.c.obj
 .text.UART_EnableInterrupts
                0x0000000000000000      0x1c4 CMakeFiles/low_power_usecases.elf.dir/home/nxf46594/projects/845/repo/SDK_2.9.1_EVK-MIMX8MM/devices/MIMX8MM6/drivers/fsl_uart.c.obj
 .text.UART_DisableInterrupts
                0x0000000000000000      0x1cc CMakeFiles/low_power_usecases.elf.dir/home/nxf46594/projects/845/repo/SDK_2.9.1_EVK-MIMX8MM/devices/MIMX8MM6/drivers/fsl_uart.c.obj
 .text.UART_GetEnabledInterrupts
                0x0000000000000000      0x1e0 CMakeFiles/low_power_usecases.elf.dir/home/nxf46594/projects/845/repo/SDK_2.9.1_EVK-MIMX8MM/devices/MIMX8MM6/drivers/fsl_uart.c.obj
 .text.UART_GetStatusFlag
                0x0000000000000000       0x3c CMakeFiles/low_power_usecases.elf.dir/home/nxf46594/projects/845/repo/SDK_2.9.1_EVK-MIMX8MM/devices/MIMX8MM6/drivers/fsl_uart.c.obj
 .text.UART_WriteNonBlocking
                0x0000000000000000       0x58 CMakeFiles/low_power_usecases.elf.dir/home/nxf46594/projects/845/repo/SDK_2.9.1_EVK-MIMX8MM/devices/MIMX8MM6/drivers/fsl_uart.c.obj
 .text.UART_ReadNonBlocking
                0x0000000000000000       0x58 CMakeFiles/low_power_usecases.elf.dir/home/nxf46594/projects/845/repo/SDK_2.9.1_EVK-MIMX8MM/devices/MIMX8MM6/drivers/fsl_uart.c.obj
 .text.UART_TransferCreateHandle
                0x0000000000000000       0x94 CMakeFiles/low_power_usecases.elf.dir/home/nxf46594/projects/845/repo/SDK_2.9.1_EVK-MIMX8MM/devices/MIMX8MM6/drivers/fsl_uart.c.obj
 .text.UART_TransferStartRingBuffer
                0x0000000000000000       0x74 CMakeFiles/low_power_usecases.elf.dir/home/nxf46594/projects/845/repo/SDK_2.9.1_EVK-MIMX8MM/devices/MIMX8MM6/drivers/fsl_uart.c.obj
 .text.UART_TransferStopRingBuffer
                0x0000000000000000       0x64 CMakeFiles/low_power_usecases.elf.dir/home/nxf46594/projects/845/repo/SDK_2.9.1_EVK-MIMX8MM/devices/MIMX8MM6/drivers/fsl_uart.c.obj
 .text.UART_TransferSendNonBlocking
                0x0000000000000000       0xc4 CMakeFiles/low_power_usecases.elf.dir/home/nxf46594/projects/845/repo/SDK_2.9.1_EVK-MIMX8MM/devices/MIMX8MM6/drivers/fsl_uart.c.obj
 .text.UART_TransferAbortSend
                0x0000000000000000       0x48 CMakeFiles/low_power_usecases.elf.dir/home/nxf46594/projects/845/repo/SDK_2.9.1_EVK-MIMX8MM/devices/MIMX8MM6/drivers/fsl_uart.c.obj
 .text.UART_TransferGetSendCount
                0x0000000000000000       0x6c CMakeFiles/low_power_usecases.elf.dir/home/nxf46594/projects/845/repo/SDK_2.9.1_EVK-MIMX8MM/devices/MIMX8MM6/drivers/fsl_uart.c.obj
 .text.UART_TransferReceiveNonBlocking
                0x0000000000000000      0x1c0 CMakeFiles/low_power_usecases.elf.dir/home/nxf46594/projects/845/repo/SDK_2.9.1_EVK-MIMX8MM/devices/MIMX8MM6/drivers/fsl_uart.c.obj
 .text.UART_TransferAbortReceive
                0x0000000000000000       0x54 CMakeFiles/low_power_usecases.elf.dir/home/nxf46594/projects/845/repo/SDK_2.9.1_EVK-MIMX8MM/devices/MIMX8MM6/drivers/fsl_uart.c.obj
 .text.UART_TransferGetReceiveCount
                0x0000000000000000       0x78 CMakeFiles/low_power_usecases.elf.dir/home/nxf46594/projects/845/repo/SDK_2.9.1_EVK-MIMX8MM/devices/MIMX8MM6/drivers/fsl_uart.c.obj
 .text.UART_TransferHandleIRQ
                0x0000000000000000      0x514 CMakeFiles/low_power_usecases.elf.dir/home/nxf46594/projects/845/repo/SDK_2.9.1_EVK-MIMX8MM/devices/MIMX8MM6/drivers/fsl_uart.c.obj
 .rodata.__func__.23
                0x0000000000000000       0x23 CMakeFiles/low_power_usecases.elf.dir/home/nxf46594/projects/845/repo/SDK_2.9.1_EVK-MIMX8MM/devices/MIMX8MM6/drivers/fsl_uart.c.obj
 .rodata.__func__.22
                0x0000000000000000       0x20 CMakeFiles/low_power_usecases.elf.dir/home/nxf46594/projects/845/repo/SDK_2.9.1_EVK-MIMX8MM/devices/MIMX8MM6/drivers/fsl_uart.c.obj
 .rodata.__func__.16
                0x0000000000000000       0x16 CMakeFiles/low_power_usecases.elf.dir/home/nxf46594/projects/845/repo/SDK_2.9.1_EVK-MIMX8MM/devices/MIMX8MM6/drivers/fsl_uart.c.obj
 .rodata.__func__.15
                0x0000000000000000       0x17 CMakeFiles/low_power_usecases.elf.dir/home/nxf46594/projects/845/repo/SDK_2.9.1_EVK-MIMX8MM/devices/MIMX8MM6/drivers/fsl_uart.c.obj
 .rodata.__func__.14
                0x0000000000000000       0x1a CMakeFiles/low_power_usecases.elf.dir/home/nxf46594/projects/845/repo/SDK_2.9.1_EVK-MIMX8MM/devices/MIMX8MM6/drivers/fsl_uart.c.obj
 .rodata.__func__.11
                0x0000000000000000       0x16 CMakeFiles/low_power_usecases.elf.dir/home/nxf46594/projects/845/repo/SDK_2.9.1_EVK-MIMX8MM/devices/MIMX8MM6/drivers/fsl_uart.c.obj
 .rodata.__func__.10
                0x0000000000000000       0x15 CMakeFiles/low_power_usecases.elf.dir/home/nxf46594/projects/845/repo/SDK_2.9.1_EVK-MIMX8MM/devices/MIMX8MM6/drivers/fsl_uart.c.obj
 .rodata.__func__.9
                0x0000000000000000       0x1a CMakeFiles/low_power_usecases.elf.dir/home/nxf46594/projects/845/repo/SDK_2.9.1_EVK-MIMX8MM/devices/MIMX8MM6/drivers/fsl_uart.c.obj
 .rodata.__func__.8
                0x0000000000000000       0x1d CMakeFiles/low_power_usecases.elf.dir/home/nxf46594/projects/845/repo/SDK_2.9.1_EVK-MIMX8MM/devices/MIMX8MM6/drivers/fsl_uart.c.obj
 .rodata.__func__.7
                0x0000000000000000       0x1c CMakeFiles/low_power_usecases.elf.dir/home/nxf46594/projects/845/repo/SDK_2.9.1_EVK-MIMX8MM/devices/MIMX8MM6/drivers/fsl_uart.c.obj
 .rodata.__func__.6
                0x0000000000000000       0x1d CMakeFiles/low_power_usecases.elf.dir/home/nxf46594/projects/845/repo/SDK_2.9.1_EVK-MIMX8MM/devices/MIMX8MM6/drivers/fsl_uart.c.obj
 .rodata.__func__.5
                0x0000000000000000       0x17 CMakeFiles/low_power_usecases.elf.dir/home/nxf46594/projects/845/repo/SDK_2.9.1_EVK-MIMX8MM/devices/MIMX8MM6/drivers/fsl_uart.c.obj
 .rodata.__func__.4
                0x0000000000000000       0x1a CMakeFiles/low_power_usecases.elf.dir/home/nxf46594/projects/845/repo/SDK_2.9.1_EVK-MIMX8MM/devices/MIMX8MM6/drivers/fsl_uart.c.obj
 .rodata.__func__.3
                0x0000000000000000       0x20 CMakeFiles/low_power_usecases.elf.dir/home/nxf46594/projects/845/repo/SDK_2.9.1_EVK-MIMX8MM/devices/MIMX8MM6/drivers/fsl_uart.c.obj
 .rodata.__func__.2
                0x0000000000000000       0x1a CMakeFiles/low_power_usecases.elf.dir/home/nxf46594/projects/845/repo/SDK_2.9.1_EVK-MIMX8MM/devices/MIMX8MM6/drivers/fsl_uart.c.obj
 .rodata.__func__.1
                0x0000000000000000       0x1d CMakeFiles/low_power_usecases.elf.dir/home/nxf46594/projects/845/repo/SDK_2.9.1_EVK-MIMX8MM/devices/MIMX8MM6/drivers/fsl_uart.c.obj
 .rodata.__func__.0
                0x0000000000000000       0x17 CMakeFiles/low_power_usecases.elf.dir/home/nxf46594/projects/845/repo/SDK_2.9.1_EVK-MIMX8MM/devices/MIMX8MM6/drivers/fsl_uart.c.obj
 .text          0x0000000000000000        0x0 CMakeFiles/low_power_usecases.elf.dir/home/nxf46594/projects/845/repo/SDK_2.9.1_EVK-MIMX8MM/components/uart/fsl_adapter_iuart.c.obj
 .data          0x0000000000000000        0x0 CMakeFiles/low_power_usecases.elf.dir/home/nxf46594/projects/845/repo/SDK_2.9.1_EVK-MIMX8MM/components/uart/fsl_adapter_iuart.c.obj
 .bss           0x0000000000000000        0x0 CMakeFiles/low_power_usecases.elf.dir/home/nxf46594/projects/845/repo/SDK_2.9.1_EVK-MIMX8MM/components/uart/fsl_adapter_iuart.c.obj
 .text.HAL_UartEnterLowpower
                0x0000000000000000       0x34 CMakeFiles/low_power_usecases.elf.dir/home/nxf46594/projects/845/repo/SDK_2.9.1_EVK-MIMX8MM/components/uart/fsl_adapter_iuart.c.obj
 .text.HAL_UartExitLowpower
                0x0000000000000000       0x34 CMakeFiles/low_power_usecases.elf.dir/home/nxf46594/projects/845/repo/SDK_2.9.1_EVK-MIMX8MM/components/uart/fsl_adapter_iuart.c.obj
 .rodata.__func__.1
                0x0000000000000000       0x16 CMakeFiles/low_power_usecases.elf.dir/home/nxf46594/projects/845/repo/SDK_2.9.1_EVK-MIMX8MM/components/uart/fsl_adapter_iuart.c.obj
 .rodata.__func__.0
                0x0000000000000000       0x15 CMakeFiles/low_power_usecases.elf.dir/home/nxf46594/projects/845/repo/SDK_2.9.1_EVK-MIMX8MM/components/uart/fsl_adapter_iuart.c.obj
 .text          0x0000000000000000        0x0 CMakeFiles/low_power_usecases.elf.dir/home/nxf46594/projects/845/repo/SDK_2.9.1_EVK-MIMX8MM/components/lists/fsl_component_generic_list.c.obj
 .data          0x0000000000000000        0x0 CMakeFiles/low_power_usecases.elf.dir/home/nxf46594/projects/845/repo/SDK_2.9.1_EVK-MIMX8MM/components/lists/fsl_component_generic_list.c.obj
 .bss           0x0000000000000000        0x0 CMakeFiles/low_power_usecases.elf.dir/home/nxf46594/projects/845/repo/SDK_2.9.1_EVK-MIMX8MM/components/lists/fsl_component_generic_list.c.obj
 .text.DisableGlobalIRQ
                0x0000000000000000       0x22 CMakeFiles/low_power_usecases.elf.dir/home/nxf46594/projects/845/repo/SDK_2.9.1_EVK-MIMX8MM/components/lists/fsl_component_generic_list.c.obj
 .text.EnableGlobalIRQ
                0x0000000000000000       0x20 CMakeFiles/low_power_usecases.elf.dir/home/nxf46594/projects/845/repo/SDK_2.9.1_EVK-MIMX8MM/components/lists/fsl_component_generic_list.c.obj
 .text.LIST_Error_Check
                0x0000000000000000       0x36 CMakeFiles/low_power_usecases.elf.dir/home/nxf46594/projects/845/repo/SDK_2.9.1_EVK-MIMX8MM/components/lists/fsl_component_generic_list.c.obj
 .text.LIST_Init
                0x0000000000000000       0x30 CMakeFiles/low_power_usecases.elf.dir/home/nxf46594/projects/845/repo/SDK_2.9.1_EVK-MIMX8MM/components/lists/fsl_component_generic_list.c.obj
 .text.LIST_GetList
                0x0000000000000000       0x18 CMakeFiles/low_power_usecases.elf.dir/home/nxf46594/projects/845/repo/SDK_2.9.1_EVK-MIMX8MM/components/lists/fsl_component_generic_list.c.obj
 .text.LIST_AddTail
                0x0000000000000000       0x6c CMakeFiles/low_power_usecases.elf.dir/home/nxf46594/projects/845/repo/SDK_2.9.1_EVK-MIMX8MM/components/lists/fsl_component_generic_list.c.obj
 .text.LIST_AddHead
                0x0000000000000000       0x64 CMakeFiles/low_power_usecases.elf.dir/home/nxf46594/projects/845/repo/SDK_2.9.1_EVK-MIMX8MM/components/lists/fsl_component_generic_list.c.obj
 .text.LIST_RemoveHead
                0x0000000000000000       0x60 CMakeFiles/low_power_usecases.elf.dir/home/nxf46594/projects/845/repo/SDK_2.9.1_EVK-MIMX8MM/components/lists/fsl_component_generic_list.c.obj
 .text.LIST_GetHead
                0x0000000000000000       0x18 CMakeFiles/low_power_usecases.elf.dir/home/nxf46594/projects/845/repo/SDK_2.9.1_EVK-MIMX8MM/components/lists/fsl_component_generic_list.c.obj
 .text.LIST_GetNext
                0x0000000000000000       0x18 CMakeFiles/low_power_usecases.elf.dir/home/nxf46594/projects/845/repo/SDK_2.9.1_EVK-MIMX8MM/components/lists/fsl_component_generic_list.c.obj
 .text.LIST_GetPrev
                0x0000000000000000       0x16 CMakeFiles/low_power_usecases.elf.dir/home/nxf46594/projects/845/repo/SDK_2.9.1_EVK-MIMX8MM/components/lists/fsl_component_generic_list.c.obj
 .text.LIST_RemoveElement
                0x0000000000000000       0x86 CMakeFiles/low_power_usecases.elf.dir/home/nxf46594/projects/845/repo/SDK_2.9.1_EVK-MIMX8MM/components/lists/fsl_component_generic_list.c.obj
 .text.LIST_AddPrevElement
                0x0000000000000000       0xa6 CMakeFiles/low_power_usecases.elf.dir/home/nxf46594/projects/845/repo/SDK_2.9.1_EVK-MIMX8MM/components/lists/fsl_component_generic_list.c.obj
 .text.LIST_GetSize
                0x0000000000000000       0x18 CMakeFiles/low_power_usecases.elf.dir/home/nxf46594/projects/845/repo/SDK_2.9.1_EVK-MIMX8MM/components/lists/fsl_component_generic_list.c.obj
 .text.LIST_GetAvailableSize
                0x0000000000000000       0x20 CMakeFiles/low_power_usecases.elf.dir/home/nxf46594/projects/845/repo/SDK_2.9.1_EVK-MIMX8MM/components/lists/fsl_component_generic_list.c.obj
 .debug_info    0x0000000000000000      0x598 CMakeFiles/low_power_usecases.elf.dir/home/nxf46594/projects/845/repo/SDK_2.9.1_EVK-MIMX8MM/components/lists/fsl_component_generic_list.c.obj
 .debug_abbrev  0x0000000000000000      0x27e CMakeFiles/low_power_usecases.elf.dir/home/nxf46594/projects/845/repo/SDK_2.9.1_EVK-MIMX8MM/components/lists/fsl_component_generic_list.c.obj
 .debug_aranges
                0x0000000000000000       0x90 CMakeFiles/low_power_usecases.elf.dir/home/nxf46594/projects/845/repo/SDK_2.9.1_EVK-MIMX8MM/components/lists/fsl_component_generic_list.c.obj
 .debug_ranges  0x0000000000000000       0x80 CMakeFiles/low_power_usecases.elf.dir/home/nxf46594/projects/845/repo/SDK_2.9.1_EVK-MIMX8MM/components/lists/fsl_component_generic_list.c.obj
 .debug_line    0x0000000000000000      0x4d3 CMakeFiles/low_power_usecases.elf.dir/home/nxf46594/projects/845/repo/SDK_2.9.1_EVK-MIMX8MM/components/lists/fsl_component_generic_list.c.obj
 .debug_str     0x0000000000000000      0x46f CMakeFiles/low_power_usecases.elf.dir/home/nxf46594/projects/845/repo/SDK_2.9.1_EVK-MIMX8MM/components/lists/fsl_component_generic_list.c.obj
 .comment       0x0000000000000000       0x4e CMakeFiles/low_power_usecases.elf.dir/home/nxf46594/projects/845/repo/SDK_2.9.1_EVK-MIMX8MM/components/lists/fsl_component_generic_list.c.obj
 .debug_frame   0x0000000000000000      0x254 CMakeFiles/low_power_usecases.elf.dir/home/nxf46594/projects/845/repo/SDK_2.9.1_EVK-MIMX8MM/components/lists/fsl_component_generic_list.c.obj
 .ARM.attributes
                0x0000000000000000       0x34 CMakeFiles/low_power_usecases.elf.dir/home/nxf46594/projects/845/repo/SDK_2.9.1_EVK-MIMX8MM/components/lists/fsl_component_generic_list.c.obj
 .data          0x0000000000000000        0x0 CMakeFiles/low_power_usecases.elf.dir/home/nxf46594/projects/845/repo/SDK_2.9.1_EVK-MIMX8MM/devices/MIMX8MM6/gcc/startup_MIMX8MM6_cm4.S.obj
 .bss           0x0000000000000000        0x0 CMakeFiles/low_power_usecases.elf.dir/home/nxf46594/projects/845/repo/SDK_2.9.1_EVK-MIMX8MM/devices/MIMX8MM6/gcc/startup_MIMX8MM6_cm4.S.obj
 .text          0x0000000000000000        0x0 CMakeFiles/low_power_usecases.elf.dir/home/nxf46594/projects/845/repo/SDK_2.9.1_EVK-MIMX8MM/devices/MIMX8MM6/system_MIMX8MM6_cm4.c.obj
 .data          0x0000000000000000        0x0 CMakeFiles/low_power_usecases.elf.dir/home/nxf46594/projects/845/repo/SDK_2.9.1_EVK-MIMX8MM/devices/MIMX8MM6/system_MIMX8MM6_cm4.c.obj
 .bss           0x0000000000000000        0x0 CMakeFiles/low_power_usecases.elf.dir/home/nxf46594/projects/845/repo/SDK_2.9.1_EVK-MIMX8MM/devices/MIMX8MM6/system_MIMX8MM6_cm4.c.obj
 .text          0x0000000000000000        0x0 CMakeFiles/low_power_usecases.elf.dir/home/nxf46594/projects/845/repo/SDK_2.9.1_EVK-MIMX8MM/devices/MIMX8MM6/utilities/fsl_assert.c.obj
 .data          0x0000000000000000        0x0 CMakeFiles/low_power_usecases.elf.dir/home/nxf46594/projects/845/repo/SDK_2.9.1_EVK-MIMX8MM/devices/MIMX8MM6/utilities/fsl_assert.c.obj
 .bss           0x0000000000000000        0x0 CMakeFiles/low_power_usecases.elf.dir/home/nxf46594/projects/845/repo/SDK_2.9.1_EVK-MIMX8MM/devices/MIMX8MM6/utilities/fsl_assert.c.obj
 .text          0x0000000000000000        0x0 CMakeFiles/low_power_usecases.elf.dir/home/nxf46594/projects/845/repo/SDK_2.9.1_EVK-MIMX8MM/devices/MIMX8MM6/utilities/fsl_sbrk.c.obj
 .data          0x0000000000000000        0x0 CMakeFiles/low_power_usecases.elf.dir/home/nxf46594/projects/845/repo/SDK_2.9.1_EVK-MIMX8MM/devices/MIMX8MM6/utilities/fsl_sbrk.c.obj
 .bss           0x0000000000000000        0x0 CMakeFiles/low_power_usecases.elf.dir/home/nxf46594/projects/845/repo/SDK_2.9.1_EVK-MIMX8MM/devices/MIMX8MM6/utilities/fsl_sbrk.c.obj
 .text          0x0000000000000000        0x0 CMakeFiles/low_power_usecases.elf.dir/home/nxf46594/projects/845/repo/SDK_2.9.1_EVK-MIMX8MM/devices/MIMX8MM6/drivers/fsl_gpc.c.obj
 .data          0x0000000000000000        0x0 CMakeFiles/low_power_usecases.elf.dir/home/nxf46594/projects/845/repo/SDK_2.9.1_EVK-MIMX8MM/devices/MIMX8MM6/drivers/fsl_gpc.c.obj
 .bss           0x0000000000000000        0x0 CMakeFiles/low_power_usecases.elf.dir/home/nxf46594/projects/845/repo/SDK_2.9.1_EVK-MIMX8MM/devices/MIMX8MM6/drivers/fsl_gpc.c.obj
 .text.GPC_DisableIRQ
                0x0000000000000000       0x60 CMakeFiles/low_power_usecases.elf.dir/home/nxf46594/projects/845/repo/SDK_2.9.1_EVK-MIMX8MM/devices/MIMX8MM6/drivers/fsl_gpc.c.obj
 .text.GPC_GetIRQStatusFlag
                0x0000000000000000       0x68 CMakeFiles/low_power_usecases.elf.dir/home/nxf46594/projects/845/repo/SDK_2.9.1_EVK-MIMX8MM/devices/MIMX8MM6/drivers/fsl_gpc.c.obj
 .rodata.__func__.1
                0x0000000000000000        0xf CMakeFiles/low_power_usecases.elf.dir/home/nxf46594/projects/845/repo/SDK_2.9.1_EVK-MIMX8MM/devices/MIMX8MM6/drivers/fsl_gpc.c.obj
 .rodata.__func__.0
                0x0000000000000000       0x15 CMakeFiles/low_power_usecases.elf.dir/home/nxf46594/projects/845/repo/SDK_2.9.1_EVK-MIMX8MM/devices/MIMX8MM6/drivers/fsl_gpc.c.obj
 .text          0x0000000000000000        0x0 CMakeFiles/low_power_usecases.elf.dir/home/nxf46594/projects/845/repo/SDK_2.9.1_EVK-MIMX8MM/devices/MIMX8MM6/drivers/fsl_gpt.c.obj
 .data          0x0000000000000000        0x0 CMakeFiles/low_power_usecases.elf.dir/home/nxf46594/projects/845/repo/SDK_2.9.1_EVK-MIMX8MM/devices/MIMX8MM6/drivers/fsl_gpt.c.obj
 .bss           0x0000000000000000        0x0 CMakeFiles/low_power_usecases.elf.dir/home/nxf46594/projects/845/repo/SDK_2.9.1_EVK-MIMX8MM/devices/MIMX8MM6/drivers/fsl_gpt.c.obj
 .text.GPT_Deinit
                0x0000000000000000       0x30 CMakeFiles/low_power_usecases.elf.dir/home/nxf46594/projects/845/repo/SDK_2.9.1_EVK-MIMX8MM/devices/MIMX8MM6/drivers/fsl_gpt.c.obj
 .text          0x0000000000000000        0x0 CMakeFiles/low_power_usecases.elf.dir/home/nxf46594/projects/845/repo/SDK_2.9.1_EVK-MIMX8MM/devices/MIMX8MM6/drivers/fsl_mu.c.obj
 .data          0x0000000000000000        0x0 CMakeFiles/low_power_usecases.elf.dir/home/nxf46594/projects/845/repo/SDK_2.9.1_EVK-MIMX8MM/devices/MIMX8MM6/drivers/fsl_mu.c.obj
 .bss           0x0000000000000000        0x0 CMakeFiles/low_power_usecases.elf.dir/home/nxf46594/projects/845/repo/SDK_2.9.1_EVK-MIMX8MM/devices/MIMX8MM6/drivers/fsl_mu.c.obj
 .text.MU_SetFlagsNonBlocking
                0x0000000000000000       0x36 CMakeFiles/low_power_usecases.elf.dir/home/nxf46594/projects/845/repo/SDK_2.9.1_EVK-MIMX8MM/devices/MIMX8MM6/drivers/fsl_mu.c.obj
 .rodata.s_muClocks
                0x0000000000000000        0x4 CMakeFiles/low_power_usecases.elf.dir/home/nxf46594/projects/845/repo/SDK_2.9.1_EVK-MIMX8MM/devices/MIMX8MM6/drivers/fsl_mu.c.obj
 .rodata.s_muBases
                0x0000000000000000        0x4 CMakeFiles/low_power_usecases.elf.dir/home/nxf46594/projects/845/repo/SDK_2.9.1_EVK-MIMX8MM/devices/MIMX8MM6/drivers/fsl_mu.c.obj
 .text.MU_Deinit
                0x0000000000000000       0x20 CMakeFiles/low_power_usecases.elf.dir/home/nxf46594/projects/845/repo/SDK_2.9.1_EVK-MIMX8MM/devices/MIMX8MM6/drivers/fsl_mu.c.obj
 .text.MU_ReceiveMsg
                0x0000000000000000       0x50 CMakeFiles/low_power_usecases.elf.dir/home/nxf46594/projects/845/repo/SDK_2.9.1_EVK-MIMX8MM/devices/MIMX8MM6/drivers/fsl_mu.c.obj
 .text.MU_SetFlags
                0x0000000000000000       0x28 CMakeFiles/low_power_usecases.elf.dir/home/nxf46594/projects/845/repo/SDK_2.9.1_EVK-MIMX8MM/devices/MIMX8MM6/drivers/fsl_mu.c.obj
 .text.MU_TriggerInterrupts
                0x0000000000000000       0x48 CMakeFiles/low_power_usecases.elf.dir/home/nxf46594/projects/845/repo/SDK_2.9.1_EVK-MIMX8MM/devices/MIMX8MM6/drivers/fsl_mu.c.obj
 .rodata.__func__.0
                0x0000000000000000        0xe CMakeFiles/low_power_usecases.elf.dir/home/nxf46594/projects/845/repo/SDK_2.9.1_EVK-MIMX8MM/devices/MIMX8MM6/drivers/fsl_mu.c.obj
 .text          0x0000000000000000        0x0 CMakeFiles/low_power_usecases.elf.dir/home/nxf46594/projects/845/repo/SDK_2.9.1_EVK-MIMX8MM/devices/MIMX8MM6/drivers/fsl_i2c.c.obj
 .data          0x0000000000000000        0x0 CMakeFiles/low_power_usecases.elf.dir/home/nxf46594/projects/845/repo/SDK_2.9.1_EVK-MIMX8MM/devices/MIMX8MM6/drivers/fsl_i2c.c.obj
 .bss           0x0000000000000000        0x0 CMakeFiles/low_power_usecases.elf.dir/home/nxf46594/projects/845/repo/SDK_2.9.1_EVK-MIMX8MM/devices/MIMX8MM6/drivers/fsl_i2c.c.obj
 .text.I2C_SlaveGetStatusFlags
                0x0000000000000000       0x18 CMakeFiles/low_power_usecases.elf.dir/home/nxf46594/projects/845/repo/SDK_2.9.1_EVK-MIMX8MM/devices/MIMX8MM6/drivers/fsl_i2c.c.obj
 .text.I2C_SlaveClearStatusFlags
                0x0000000000000000       0x1a CMakeFiles/low_power_usecases.elf.dir/home/nxf46594/projects/845/repo/SDK_2.9.1_EVK-MIMX8MM/devices/MIMX8MM6/drivers/fsl_i2c.c.obj
 .text.I2C_MasterWriteBlocking
                0x0000000000000000      0x108 CMakeFiles/low_power_usecases.elf.dir/home/nxf46594/projects/845/repo/SDK_2.9.1_EVK-MIMX8MM/devices/MIMX8MM6/drivers/fsl_i2c.c.obj
 .text.I2C_MasterReadBlocking
                0x0000000000000000       0xfe CMakeFiles/low_power_usecases.elf.dir/home/nxf46594/projects/845/repo/SDK_2.9.1_EVK-MIMX8MM/devices/MIMX8MM6/drivers/fsl_i2c.c.obj
 .text.I2C_MasterTransferBlocking
                0x0000000000000000      0x260 CMakeFiles/low_power_usecases.elf.dir/home/nxf46594/projects/845/repo/SDK_2.9.1_EVK-MIMX8MM/devices/MIMX8MM6/drivers/fsl_i2c.c.obj
 .text.I2C_MasterTransferAbort
                0x0000000000000000       0xdc CMakeFiles/low_power_usecases.elf.dir/home/nxf46594/projects/845/repo/SDK_2.9.1_EVK-MIMX8MM/devices/MIMX8MM6/drivers/fsl_i2c.c.obj
 .text.I2C_MasterTransferGetCount
                0x0000000000000000       0x50 CMakeFiles/low_power_usecases.elf.dir/home/nxf46594/projects/845/repo/SDK_2.9.1_EVK-MIMX8MM/devices/MIMX8MM6/drivers/fsl_i2c.c.obj
 .text.I2C_SlaveInit
                0x0000000000000000       0x80 CMakeFiles/low_power_usecases.elf.dir/home/nxf46594/projects/845/repo/SDK_2.9.1_EVK-MIMX8MM/devices/MIMX8MM6/drivers/fsl_i2c.c.obj
 .text.I2C_SlaveDeinit
                0x0000000000000000       0x30 CMakeFiles/low_power_usecases.elf.dir/home/nxf46594/projects/845/repo/SDK_2.9.1_EVK-MIMX8MM/devices/MIMX8MM6/drivers/fsl_i2c.c.obj
 .text.I2C_SlaveGetDefaultConfig
                0x0000000000000000       0x40 CMakeFiles/low_power_usecases.elf.dir/home/nxf46594/projects/845/repo/SDK_2.9.1_EVK-MIMX8MM/devices/MIMX8MM6/drivers/fsl_i2c.c.obj
 .text.I2C_SlaveWriteBlocking
                0x0000000000000000       0x6e CMakeFiles/low_power_usecases.elf.dir/home/nxf46594/projects/845/repo/SDK_2.9.1_EVK-MIMX8MM/devices/MIMX8MM6/drivers/fsl_i2c.c.obj
 .text.I2C_SlaveReadBlocking
                0x0000000000000000       0xa2 CMakeFiles/low_power_usecases.elf.dir/home/nxf46594/projects/845/repo/SDK_2.9.1_EVK-MIMX8MM/devices/MIMX8MM6/drivers/fsl_i2c.c.obj
 .text.I2C_SlaveTransferCreateHandle
                0x0000000000000000       0x84 CMakeFiles/low_power_usecases.elf.dir/home/nxf46594/projects/845/repo/SDK_2.9.1_EVK-MIMX8MM/devices/MIMX8MM6/drivers/fsl_i2c.c.obj
 .text.I2C_SlaveTransferNonBlocking
                0x0000000000000000       0x7c CMakeFiles/low_power_usecases.elf.dir/home/nxf46594/projects/845/repo/SDK_2.9.1_EVK-MIMX8MM/devices/MIMX8MM6/drivers/fsl_i2c.c.obj
 .text.I2C_SlaveTransferAbort
                0x0000000000000000       0x58 CMakeFiles/low_power_usecases.elf.dir/home/nxf46594/projects/845/repo/SDK_2.9.1_EVK-MIMX8MM/devices/MIMX8MM6/drivers/fsl_i2c.c.obj
 .text.I2C_SlaveTransferGetCount
                0x0000000000000000       0x5c CMakeFiles/low_power_usecases.elf.dir/home/nxf46594/projects/845/repo/SDK_2.9.1_EVK-MIMX8MM/devices/MIMX8MM6/drivers/fsl_i2c.c.obj
 .text.I2C_SlaveTransferHandleIRQ
                0x0000000000000000      0x30c CMakeFiles/low_power_usecases.elf.dir/home/nxf46594/projects/845/repo/SDK_2.9.1_EVK-MIMX8MM/devices/MIMX8MM6/drivers/fsl_i2c.c.obj
 .rodata.__func__.12
                0x0000000000000000       0x1b CMakeFiles/low_power_usecases.elf.dir/home/nxf46594/projects/845/repo/SDK_2.9.1_EVK-MIMX8MM/devices/MIMX8MM6/drivers/fsl_i2c.c.obj
 .rodata.__func__.9
                0x0000000000000000       0x18 CMakeFiles/low_power_usecases.elf.dir/home/nxf46594/projects/845/repo/SDK_2.9.1_EVK-MIMX8MM/devices/MIMX8MM6/drivers/fsl_i2c.c.obj
 .rodata.__func__.8
                0x0000000000000000       0x1b CMakeFiles/low_power_usecases.elf.dir/home/nxf46594/projects/845/repo/SDK_2.9.1_EVK-MIMX8MM/devices/MIMX8MM6/drivers/fsl_i2c.c.obj
 .rodata.__func__.6
                0x0000000000000000        0xe CMakeFiles/low_power_usecases.elf.dir/home/nxf46594/projects/845/repo/SDK_2.9.1_EVK-MIMX8MM/devices/MIMX8MM6/drivers/fsl_i2c.c.obj
 .rodata.__func__.5
                0x0000000000000000       0x1a CMakeFiles/low_power_usecases.elf.dir/home/nxf46594/projects/845/repo/SDK_2.9.1_EVK-MIMX8MM/devices/MIMX8MM6/drivers/fsl_i2c.c.obj
 .rodata.__func__.4
                0x0000000000000000       0x1e CMakeFiles/low_power_usecases.elf.dir/home/nxf46594/projects/845/repo/SDK_2.9.1_EVK-MIMX8MM/devices/MIMX8MM6/drivers/fsl_i2c.c.obj
 .rodata.__func__.3
                0x0000000000000000       0x1d CMakeFiles/low_power_usecases.elf.dir/home/nxf46594/projects/845/repo/SDK_2.9.1_EVK-MIMX8MM/devices/MIMX8MM6/drivers/fsl_i2c.c.obj
 .rodata.__func__.2
                0x0000000000000000       0x17 CMakeFiles/low_power_usecases.elf.dir/home/nxf46594/projects/845/repo/SDK_2.9.1_EVK-MIMX8MM/devices/MIMX8MM6/drivers/fsl_i2c.c.obj
 .rodata.__func__.1
                0x0000000000000000       0x1a CMakeFiles/low_power_usecases.elf.dir/home/nxf46594/projects/845/repo/SDK_2.9.1_EVK-MIMX8MM/devices/MIMX8MM6/drivers/fsl_i2c.c.obj
 .rodata.__func__.0
                0x0000000000000000       0x1b CMakeFiles/low_power_usecases.elf.dir/home/nxf46594/projects/845/repo/SDK_2.9.1_EVK-MIMX8MM/devices/MIMX8MM6/drivers/fsl_i2c.c.obj
 .text          0x0000000000000000        0x0 CMakeFiles/low_power_usecases.elf.dir/home/nxf46594/projects/845/repo/SDK_2.9.1_EVK-MIMX8MM/devices/MIMX8MM6/drivers/fsl_i2c_freertos.c.obj
 .data          0x0000000000000000        0x0 CMakeFiles/low_power_usecases.elf.dir/home/nxf46594/projects/845/repo/SDK_2.9.1_EVK-MIMX8MM/devices/MIMX8MM6/drivers/fsl_i2c_freertos.c.obj
 .bss           0x0000000000000000        0x0 CMakeFiles/low_power_usecases.elf.dir/home/nxf46594/projects/845/repo/SDK_2.9.1_EVK-MIMX8MM/devices/MIMX8MM6/drivers/fsl_i2c_freertos.c.obj
 .text          0x0000000000000000        0x0 /opt/gcc-arm-none-eabi-10-2020-q4-major/bin/../lib/gcc/arm-none-eabi/10.2.1/../../../../arm-none-eabi/lib/thumb/v7e-m+fp/hard/libc_nano.a(lib_a-errno.o)
 .data          0x0000000000000000        0x0 /opt/gcc-arm-none-eabi-10-2020-q4-major/bin/../lib/gcc/arm-none-eabi/10.2.1/../../../../arm-none-eabi/lib/thumb/v7e-m+fp/hard/libc_nano.a(lib_a-errno.o)
 .bss           0x0000000000000000        0x0 /opt/gcc-arm-none-eabi-10-2020-q4-major/bin/../lib/gcc/arm-none-eabi/10.2.1/../../../../arm-none-eabi/lib/thumb/v7e-m+fp/hard/libc_nano.a(lib_a-errno.o)
 .text          0x0000000000000000        0x0 /opt/gcc-arm-none-eabi-10-2020-q4-major/bin/../lib/gcc/arm-none-eabi/10.2.1/../../../../arm-none-eabi/lib/thumb/v7e-m+fp/hard/libc_nano.a(lib_a-exit.o)
 .data          0x0000000000000000        0x0 /opt/gcc-arm-none-eabi-10-2020-q4-major/bin/../lib/gcc/arm-none-eabi/10.2.1/../../../../arm-none-eabi/lib/thumb/v7e-m+fp/hard/libc_nano.a(lib_a-exit.o)
 .bss           0x0000000000000000        0x0 /opt/gcc-arm-none-eabi-10-2020-q4-major/bin/../lib/gcc/arm-none-eabi/10.2.1/../../../../arm-none-eabi/lib/thumb/v7e-m+fp/hard/libc_nano.a(lib_a-exit.o)
 .text          0x0000000000000000        0x0 /opt/gcc-arm-none-eabi-10-2020-q4-major/bin/../lib/gcc/arm-none-eabi/10.2.1/../../../../arm-none-eabi/lib/thumb/v7e-m+fp/hard/libc_nano.a(lib_a-impure.o)
 .data          0x0000000000000000        0x0 /opt/gcc-arm-none-eabi-10-2020-q4-major/bin/../lib/gcc/arm-none-eabi/10.2.1/../../../../arm-none-eabi/lib/thumb/v7e-m+fp/hard/libc_nano.a(lib_a-impure.o)
 .bss           0x0000000000000000        0x0 /opt/gcc-arm-none-eabi-10-2020-q4-major/bin/../lib/gcc/arm-none-eabi/10.2.1/../../../../arm-none-eabi/lib/thumb/v7e-m+fp/hard/libc_nano.a(lib_a-impure.o)
 .text          0x0000000000000000        0x0 /opt/gcc-arm-none-eabi-10-2020-q4-major/bin/../lib/gcc/arm-none-eabi/10.2.1/../../../../arm-none-eabi/lib/thumb/v7e-m+fp/hard/libc_nano.a(lib_a-init.o)
 .data          0x0000000000000000        0x0 /opt/gcc-arm-none-eabi-10-2020-q4-major/bin/../lib/gcc/arm-none-eabi/10.2.1/../../../../arm-none-eabi/lib/thumb/v7e-m+fp/hard/libc_nano.a(lib_a-init.o)
 .bss           0x0000000000000000        0x0 /opt/gcc-arm-none-eabi-10-2020-q4-major/bin/../lib/gcc/arm-none-eabi/10.2.1/../../../../arm-none-eabi/lib/thumb/v7e-m+fp/hard/libc_nano.a(lib_a-init.o)
 .text          0x0000000000000000        0x0 /opt/gcc-arm-none-eabi-10-2020-q4-major/bin/../lib/gcc/arm-none-eabi/10.2.1/../../../../arm-none-eabi/lib/thumb/v7e-m+fp/hard/libc_nano.a(lib_a-malloc.o)
 .data          0x0000000000000000        0x0 /opt/gcc-arm-none-eabi-10-2020-q4-major/bin/../lib/gcc/arm-none-eabi/10.2.1/../../../../arm-none-eabi/lib/thumb/v7e-m+fp/hard/libc_nano.a(lib_a-malloc.o)
 .bss           0x0000000000000000        0x0 /opt/gcc-arm-none-eabi-10-2020-q4-major/bin/../lib/gcc/arm-none-eabi/10.2.1/../../../../arm-none-eabi/lib/thumb/v7e-m+fp/hard/libc_nano.a(lib_a-malloc.o)
 .text.malloc   0x0000000000000000       0x10 /opt/gcc-arm-none-eabi-10-2020-q4-major/bin/../lib/gcc/arm-none-eabi/10.2.1/../../../../arm-none-eabi/lib/thumb/v7e-m+fp/hard/libc_nano.a(lib_a-malloc.o)
 .text.free     0x0000000000000000       0x10 /opt/gcc-arm-none-eabi-10-2020-q4-major/bin/../lib/gcc/arm-none-eabi/10.2.1/../../../../arm-none-eabi/lib/thumb/v7e-m+fp/hard/libc_nano.a(lib_a-malloc.o)
 .debug_frame   0x0000000000000000       0x30 /opt/gcc-arm-none-eabi-10-2020-q4-major/bin/../lib/gcc/arm-none-eabi/10.2.1/../../../../arm-none-eabi/lib/thumb/v7e-m+fp/hard/libc_nano.a(lib_a-malloc.o)
 .ARM.attributes
                0x0000000000000000       0x34 /opt/gcc-arm-none-eabi-10-2020-q4-major/bin/../lib/gcc/arm-none-eabi/10.2.1/../../../../arm-none-eabi/lib/thumb/v7e-m+fp/hard/libc_nano.a(lib_a-malloc.o)
 .text          0x0000000000000000        0x0 /opt/gcc-arm-none-eabi-10-2020-q4-major/bin/../lib/gcc/arm-none-eabi/10.2.1/../../../../arm-none-eabi/lib/thumb/v7e-m+fp/hard/libc_nano.a(lib_a-memcpy-stub.o)
 .data          0x0000000000000000        0x0 /opt/gcc-arm-none-eabi-10-2020-q4-major/bin/../lib/gcc/arm-none-eabi/10.2.1/../../../../arm-none-eabi/lib/thumb/v7e-m+fp/hard/libc_nano.a(lib_a-memcpy-stub.o)
 .bss           0x0000000000000000        0x0 /opt/gcc-arm-none-eabi-10-2020-q4-major/bin/../lib/gcc/arm-none-eabi/10.2.1/../../../../arm-none-eabi/lib/thumb/v7e-m+fp/hard/libc_nano.a(lib_a-memcpy-stub.o)
 .text          0x0000000000000000        0x0 /opt/gcc-arm-none-eabi-10-2020-q4-major/bin/../lib/gcc/arm-none-eabi/10.2.1/../../../../arm-none-eabi/lib/thumb/v7e-m+fp/hard/libc_nano.a(lib_a-memset.o)
 .data          0x0000000000000000        0x0 /opt/gcc-arm-none-eabi-10-2020-q4-major/bin/../lib/gcc/arm-none-eabi/10.2.1/../../../../arm-none-eabi/lib/thumb/v7e-m+fp/hard/libc_nano.a(lib_a-memset.o)
 .bss           0x0000000000000000        0x0 /opt/gcc-arm-none-eabi-10-2020-q4-major/bin/../lib/gcc/arm-none-eabi/10.2.1/../../../../arm-none-eabi/lib/thumb/v7e-m+fp/hard/libc_nano.a(lib_a-memset.o)
 .text          0x0000000000000000        0x0 /opt/gcc-arm-none-eabi-10-2020-q4-major/bin/../lib/gcc/arm-none-eabi/10.2.1/../../../../arm-none-eabi/lib/thumb/v7e-m+fp/hard/libc_nano.a(lib_a-nano-freer.o)
 .data          0x0000000000000000        0x0 /opt/gcc-arm-none-eabi-10-2020-q4-major/bin/../lib/gcc/arm-none-eabi/10.2.1/../../../../arm-none-eabi/lib/thumb/v7e-m+fp/hard/libc_nano.a(lib_a-nano-freer.o)
 .bss           0x0000000000000000        0x0 /opt/gcc-arm-none-eabi-10-2020-q4-major/bin/../lib/gcc/arm-none-eabi/10.2.1/../../../../arm-none-eabi/lib/thumb/v7e-m+fp/hard/libc_nano.a(lib_a-nano-freer.o)
 .text          0x0000000000000000        0x0 /opt/gcc-arm-none-eabi-10-2020-q4-major/bin/../lib/gcc/arm-none-eabi/10.2.1/../../../../arm-none-eabi/lib/thumb/v7e-m+fp/hard/libc_nano.a(lib_a-nano-mallocr.o)
 .data          0x0000000000000000        0x0 /opt/gcc-arm-none-eabi-10-2020-q4-major/bin/../lib/gcc/arm-none-eabi/10.2.1/../../../../arm-none-eabi/lib/thumb/v7e-m+fp/hard/libc_nano.a(lib_a-nano-mallocr.o)
 .bss           0x0000000000000000        0x0 /opt/gcc-arm-none-eabi-10-2020-q4-major/bin/../lib/gcc/arm-none-eabi/10.2.1/../../../../arm-none-eabi/lib/thumb/v7e-m+fp/hard/libc_nano.a(lib_a-nano-mallocr.o)
 .text          0x0000000000000000        0x0 /opt/gcc-arm-none-eabi-10-2020-q4-major/bin/../lib/gcc/arm-none-eabi/10.2.1/../../../../arm-none-eabi/lib/thumb/v7e-m+fp/hard/libc_nano.a(lib_a-sbrkr.o)
 .data          0x0000000000000000        0x0 /opt/gcc-arm-none-eabi-10-2020-q4-major/bin/../lib/gcc/arm-none-eabi/10.2.1/../../../../arm-none-eabi/lib/thumb/v7e-m+fp/hard/libc_nano.a(lib_a-sbrkr.o)
 .bss           0x0000000000000000        0x0 /opt/gcc-arm-none-eabi-10-2020-q4-major/bin/../lib/gcc/arm-none-eabi/10.2.1/../../../../arm-none-eabi/lib/thumb/v7e-m+fp/hard/libc_nano.a(lib_a-sbrkr.o)
 .text          0x0000000000000000        0x0 /opt/gcc-arm-none-eabi-10-2020-q4-major/bin/../lib/gcc/arm-none-eabi/10.2.1/../../../../arm-none-eabi/lib/thumb/v7e-m+fp/hard/libc_nano.a(lib_a-sprintf.o)
 .data          0x0000000000000000        0x0 /opt/gcc-arm-none-eabi-10-2020-q4-major/bin/../lib/gcc/arm-none-eabi/10.2.1/../../../../arm-none-eabi/lib/thumb/v7e-m+fp/hard/libc_nano.a(lib_a-sprintf.o)
 .bss           0x0000000000000000        0x0 /opt/gcc-arm-none-eabi-10-2020-q4-major/bin/../lib/gcc/arm-none-eabi/10.2.1/../../../../arm-none-eabi/lib/thumb/v7e-m+fp/hard/libc_nano.a(lib_a-sprintf.o)
 .text._sprintf_r
                0x0000000000000000       0x38 /opt/gcc-arm-none-eabi-10-2020-q4-major/bin/../lib/gcc/arm-none-eabi/10.2.1/../../../../arm-none-eabi/lib/thumb/v7e-m+fp/hard/libc_nano.a(lib_a-sprintf.o)
 .text          0x0000000000000000        0x0 /opt/gcc-arm-none-eabi-10-2020-q4-major/bin/../lib/gcc/arm-none-eabi/10.2.1/../../../../arm-none-eabi/lib/thumb/v7e-m+fp/hard/libc_nano.a(lib_a-strcpy.o)
 .data          0x0000000000000000        0x0 /opt/gcc-arm-none-eabi-10-2020-q4-major/bin/../lib/gcc/arm-none-eabi/10.2.1/../../../../arm-none-eabi/lib/thumb/v7e-m+fp/hard/libc_nano.a(lib_a-strcpy.o)
 .bss           0x0000000000000000        0x0 /opt/gcc-arm-none-eabi-10-2020-q4-major/bin/../lib/gcc/arm-none-eabi/10.2.1/../../../../arm-none-eabi/lib/thumb/v7e-m+fp/hard/libc_nano.a(lib_a-strcpy.o)
 .data          0x0000000000000000        0x0 /opt/gcc-arm-none-eabi-10-2020-q4-major/bin/../lib/gcc/arm-none-eabi/10.2.1/../../../../arm-none-eabi/lib/thumb/v7e-m+fp/hard/libc_nano.a(lib_a-strlen.o)
 .bss           0x0000000000000000        0x0 /opt/gcc-arm-none-eabi-10-2020-q4-major/bin/../lib/gcc/arm-none-eabi/10.2.1/../../../../arm-none-eabi/lib/thumb/v7e-m+fp/hard/libc_nano.a(lib_a-strlen.o)
 .text          0x0000000000000000        0x0 /opt/gcc-arm-none-eabi-10-2020-q4-major/bin/../lib/gcc/arm-none-eabi/10.2.1/../../../../arm-none-eabi/lib/thumb/v7e-m+fp/hard/libc_nano.a(lib_a-strtoul.o)
 .data          0x0000000000000000        0x0 /opt/gcc-arm-none-eabi-10-2020-q4-major/bin/../lib/gcc/arm-none-eabi/10.2.1/../../../../arm-none-eabi/lib/thumb/v7e-m+fp/hard/libc_nano.a(lib_a-strtoul.o)
 .bss           0x0000000000000000        0x0 /opt/gcc-arm-none-eabi-10-2020-q4-major/bin/../lib/gcc/arm-none-eabi/10.2.1/../../../../arm-none-eabi/lib/thumb/v7e-m+fp/hard/libc_nano.a(lib_a-strtoul.o)
 .text._strtoul_l.constprop.0
                0x0000000000000000       0xe4 /opt/gcc-arm-none-eabi-10-2020-q4-major/bin/../lib/gcc/arm-none-eabi/10.2.1/../../../../arm-none-eabi/lib/thumb/v7e-m+fp/hard/libc_nano.a(lib_a-strtoul.o)
 .text._strtoul_r
                0x0000000000000000        0x4 /opt/gcc-arm-none-eabi-10-2020-q4-major/bin/../lib/gcc/arm-none-eabi/10.2.1/../../../../arm-none-eabi/lib/thumb/v7e-m+fp/hard/libc_nano.a(lib_a-strtoul.o)
 .text.strtoul_l
                0x0000000000000000       0x14 /opt/gcc-arm-none-eabi-10-2020-q4-major/bin/../lib/gcc/arm-none-eabi/10.2.1/../../../../arm-none-eabi/lib/thumb/v7e-m+fp/hard/libc_nano.a(lib_a-strtoul.o)
 .text.strtoul  0x0000000000000000       0x14 /opt/gcc-arm-none-eabi-10-2020-q4-major/bin/../lib/gcc/arm-none-eabi/10.2.1/../../../../arm-none-eabi/lib/thumb/v7e-m+fp/hard/libc_nano.a(lib_a-strtoul.o)
 .debug_frame   0x0000000000000000       0x64 /opt/gcc-arm-none-eabi-10-2020-q4-major/bin/../lib/gcc/arm-none-eabi/10.2.1/../../../../arm-none-eabi/lib/thumb/v7e-m+fp/hard/libc_nano.a(lib_a-strtoul.o)
 .ARM.attributes
                0x0000000000000000       0x34 /opt/gcc-arm-none-eabi-10-2020-q4-major/bin/../lib/gcc/arm-none-eabi/10.2.1/../../../../arm-none-eabi/lib/thumb/v7e-m+fp/hard/libc_nano.a(lib_a-strtoul.o)
 .text          0x0000000000000000        0x0 /opt/gcc-arm-none-eabi-10-2020-q4-major/bin/../lib/gcc/arm-none-eabi/10.2.1/../../../../arm-none-eabi/lib/thumb/v7e-m+fp/hard/libc_nano.a(lib_a-ctype_.o)
 .data          0x0000000000000000        0x0 /opt/gcc-arm-none-eabi-10-2020-q4-major/bin/../lib/gcc/arm-none-eabi/10.2.1/../../../../arm-none-eabi/lib/thumb/v7e-m+fp/hard/libc_nano.a(lib_a-ctype_.o)
 .bss           0x0000000000000000        0x0 /opt/gcc-arm-none-eabi-10-2020-q4-major/bin/../lib/gcc/arm-none-eabi/10.2.1/../../../../arm-none-eabi/lib/thumb/v7e-m+fp/hard/libc_nano.a(lib_a-ctype_.o)
 .rodata._ctype_
                0x0000000000000000      0x101 /opt/gcc-arm-none-eabi-10-2020-q4-major/bin/../lib/gcc/arm-none-eabi/10.2.1/../../../../arm-none-eabi/lib/thumb/v7e-m+fp/hard/libc_nano.a(lib_a-ctype_.o)
 .ARM.attributes
                0x0000000000000000       0x32 /opt/gcc-arm-none-eabi-10-2020-q4-major/bin/../lib/gcc/arm-none-eabi/10.2.1/../../../../arm-none-eabi/lib/thumb/v7e-m+fp/hard/libc_nano.a(lib_a-ctype_.o)
 .text          0x0000000000000000        0x0 /opt/gcc-arm-none-eabi-10-2020-q4-major/bin/../lib/gcc/arm-none-eabi/10.2.1/../../../../arm-none-eabi/lib/thumb/v7e-m+fp/hard/libc_nano.a(lib_a-mlock.o)
 .data          0x0000000000000000        0x0 /opt/gcc-arm-none-eabi-10-2020-q4-major/bin/../lib/gcc/arm-none-eabi/10.2.1/../../../../arm-none-eabi/lib/thumb/v7e-m+fp/hard/libc_nano.a(lib_a-mlock.o)
 .bss           0x0000000000000000        0x0 /opt/gcc-arm-none-eabi-10-2020-q4-major/bin/../lib/gcc/arm-none-eabi/10.2.1/../../../../arm-none-eabi/lib/thumb/v7e-m+fp/hard/libc_nano.a(lib_a-mlock.o)
 .text          0x0000000000000000        0x0 /opt/gcc-arm-none-eabi-10-2020-q4-major/bin/../lib/gcc/arm-none-eabi/10.2.1/../../../../arm-none-eabi/lib/thumb/v7e-m+fp/hard/libc_nano.a(lib_a-nano-svfprintf.o)
 .data          0x0000000000000000        0x0 /opt/gcc-arm-none-eabi-10-2020-q4-major/bin/../lib/gcc/arm-none-eabi/10.2.1/../../../../arm-none-eabi/lib/thumb/v7e-m+fp/hard/libc_nano.a(lib_a-nano-svfprintf.o)
 .bss           0x0000000000000000        0x0 /opt/gcc-arm-none-eabi-10-2020-q4-major/bin/../lib/gcc/arm-none-eabi/10.2.1/../../../../arm-none-eabi/lib/thumb/v7e-m+fp/hard/libc_nano.a(lib_a-nano-svfprintf.o)
 .text.__ssprint_r
                0x0000000000000000       0xf6 /opt/gcc-arm-none-eabi-10-2020-q4-major/bin/../lib/gcc/arm-none-eabi/10.2.1/../../../../arm-none-eabi/lib/thumb/v7e-m+fp/hard/libc_nano.a(lib_a-nano-svfprintf.o)
 .text          0x0000000000000000        0x0 /opt/gcc-arm-none-eabi-10-2020-q4-major/bin/../lib/gcc/arm-none-eabi/10.2.1/../../../../arm-none-eabi/lib/thumb/v7e-m+fp/hard/libc_nano.a(lib_a-nano-vfprintf_i.o)
 .data          0x0000000000000000        0x0 /opt/gcc-arm-none-eabi-10-2020-q4-major/bin/../lib/gcc/arm-none-eabi/10.2.1/../../../../arm-none-eabi/lib/thumb/v7e-m+fp/hard/libc_nano.a(lib_a-nano-vfprintf_i.o)
 .bss           0x0000000000000000        0x0 /opt/gcc-arm-none-eabi-10-2020-q4-major/bin/../lib/gcc/arm-none-eabi/10.2.1/../../../../arm-none-eabi/lib/thumb/v7e-m+fp/hard/libc_nano.a(lib_a-nano-vfprintf_i.o)
 .text          0x0000000000000000        0x0 /opt/gcc-arm-none-eabi-10-2020-q4-major/bin/../lib/gcc/arm-none-eabi/10.2.1/../../../../arm-none-eabi/lib/thumb/v7e-m+fp/hard/libc_nano.a(lib_a-reent.o)
 .data          0x0000000000000000        0x0 /opt/gcc-arm-none-eabi-10-2020-q4-major/bin/../lib/gcc/arm-none-eabi/10.2.1/../../../../arm-none-eabi/lib/thumb/v7e-m+fp/hard/libc_nano.a(lib_a-reent.o)
 .bss           0x0000000000000000        0x0 /opt/gcc-arm-none-eabi-10-2020-q4-major/bin/../lib/gcc/arm-none-eabi/10.2.1/../../../../arm-none-eabi/lib/thumb/v7e-m+fp/hard/libc_nano.a(lib_a-reent.o)
 .text.cleanup_glue
                0x0000000000000000       0x1a /opt/gcc-arm-none-eabi-10-2020-q4-major/bin/../lib/gcc/arm-none-eabi/10.2.1/../../../../arm-none-eabi/lib/thumb/v7e-m+fp/hard/libc_nano.a(lib_a-reent.o)
 .text._reclaim_reent
                0x0000000000000000       0xb8 /opt/gcc-arm-none-eabi-10-2020-q4-major/bin/../lib/gcc/arm-none-eabi/10.2.1/../../../../arm-none-eabi/lib/thumb/v7e-m+fp/hard/libc_nano.a(lib_a-reent.o)
 .text          0x0000000000000000        0x0 /opt/gcc-arm-none-eabi-10-2020-q4-major/bin/../lib/gcc/arm-none-eabi/10.2.1/../../../../arm-none-eabi/lib/thumb/v7e-m+fp/hard/libc_nano.a(lib_a-lock.o)
 .data          0x0000000000000000        0x0 /opt/gcc-arm-none-eabi-10-2020-q4-major/bin/../lib/gcc/arm-none-eabi/10.2.1/../../../../arm-none-eabi/lib/thumb/v7e-m+fp/hard/libc_nano.a(lib_a-lock.o)
 .bss           0x0000000000000000        0x0 /opt/gcc-arm-none-eabi-10-2020-q4-major/bin/../lib/gcc/arm-none-eabi/10.2.1/../../../../arm-none-eabi/lib/thumb/v7e-m+fp/hard/libc_nano.a(lib_a-lock.o)
 .text.__retarget_lock_init
                0x0000000000000000        0x2 /opt/gcc-arm-none-eabi-10-2020-q4-major/bin/../lib/gcc/arm-none-eabi/10.2.1/../../../../arm-none-eabi/lib/thumb/v7e-m+fp/hard/libc_nano.a(lib_a-lock.o)
 .text.__retarget_lock_init_recursive
                0x0000000000000000        0x2 /opt/gcc-arm-none-eabi-10-2020-q4-major/bin/../lib/gcc/arm-none-eabi/10.2.1/../../../../arm-none-eabi/lib/thumb/v7e-m+fp/hard/libc_nano.a(lib_a-lock.o)
 .text.__retarget_lock_close
                0x0000000000000000        0x2 /opt/gcc-arm-none-eabi-10-2020-q4-major/bin/../lib/gcc/arm-none-eabi/10.2.1/../../../../arm-none-eabi/lib/thumb/v7e-m+fp/hard/libc_nano.a(lib_a-lock.o)
 .text.__retarget_lock_close_recursive
                0x0000000000000000        0x2 /opt/gcc-arm-none-eabi-10-2020-q4-major/bin/../lib/gcc/arm-none-eabi/10.2.1/../../../../arm-none-eabi/lib/thumb/v7e-m+fp/hard/libc_nano.a(lib_a-lock.o)
 .text.__retarget_lock_acquire
                0x0000000000000000        0x2 /opt/gcc-arm-none-eabi-10-2020-q4-major/bin/../lib/gcc/arm-none-eabi/10.2.1/../../../../arm-none-eabi/lib/thumb/v7e-m+fp/hard/libc_nano.a(lib_a-lock.o)
 .text.__retarget_lock_try_acquire
                0x0000000000000000        0x4 /opt/gcc-arm-none-eabi-10-2020-q4-major/bin/../lib/gcc/arm-none-eabi/10.2.1/../../../../arm-none-eabi/lib/thumb/v7e-m+fp/hard/libc_nano.a(lib_a-lock.o)
 .text.__retarget_lock_try_acquire_recursive
                0x0000000000000000        0x4 /opt/gcc-arm-none-eabi-10-2020-q4-major/bin/../lib/gcc/arm-none-eabi/10.2.1/../../../../arm-none-eabi/lib/thumb/v7e-m+fp/hard/libc_nano.a(lib_a-lock.o)
 .text.__retarget_lock_release
                0x0000000000000000        0x2 /opt/gcc-arm-none-eabi-10-2020-q4-major/bin/../lib/gcc/arm-none-eabi/10.2.1/../../../../arm-none-eabi/lib/thumb/v7e-m+fp/hard/libc_nano.a(lib_a-lock.o)
 .bss.__lock___arc4random_mutex
                0x0000000000000000        0x1 /opt/gcc-arm-none-eabi-10-2020-q4-major/bin/../lib/gcc/arm-none-eabi/10.2.1/../../../../arm-none-eabi/lib/thumb/v7e-m+fp/hard/libc_nano.a(lib_a-lock.o)
 .bss.__lock___at_quick_exit_mutex
                0x0000000000000000        0x1 /opt/gcc-arm-none-eabi-10-2020-q4-major/bin/../lib/gcc/arm-none-eabi/10.2.1/../../../../arm-none-eabi/lib/thumb/v7e-m+fp/hard/libc_nano.a(lib_a-lock.o)
 .bss.__lock___atexit_recursive_mutex
                0x0000000000000000        0x1 /opt/gcc-arm-none-eabi-10-2020-q4-major/bin/../lib/gcc/arm-none-eabi/10.2.1/../../../../arm-none-eabi/lib/thumb/v7e-m+fp/hard/libc_nano.a(lib_a-lock.o)
 .bss.__lock___dd_hash_mutex
                0x0000000000000000        0x1 /opt/gcc-arm-none-eabi-10-2020-q4-major/bin/../lib/gcc/arm-none-eabi/10.2.1/../../../../arm-none-eabi/lib/thumb/v7e-m+fp/hard/libc_nano.a(lib_a-lock.o)
 .bss.__lock___env_recursive_mutex
                0x0000000000000000        0x1 /opt/gcc-arm-none-eabi-10-2020-q4-major/bin/../lib/gcc/arm-none-eabi/10.2.1/../../../../arm-none-eabi/lib/thumb/v7e-m+fp/hard/libc_nano.a(lib_a-lock.o)
 .bss.__lock___sfp_recursive_mutex
                0x0000000000000000        0x1 /opt/gcc-arm-none-eabi-10-2020-q4-major/bin/../lib/gcc/arm-none-eabi/10.2.1/../../../../arm-none-eabi/lib/thumb/v7e-m+fp/hard/libc_nano.a(lib_a-lock.o)
 .bss.__lock___sinit_recursive_mutex
                0x0000000000000000        0x1 /opt/gcc-arm-none-eabi-10-2020-q4-major/bin/../lib/gcc/arm-none-eabi/10.2.1/../../../../arm-none-eabi/lib/thumb/v7e-m+fp/hard/libc_nano.a(lib_a-lock.o)
 .bss.__lock___tz_mutex
                0x0000000000000000        0x1 /opt/gcc-arm-none-eabi-10-2020-q4-major/bin/../lib/gcc/arm-none-eabi/10.2.1/../../../../arm-none-eabi/lib/thumb/v7e-m+fp/hard/libc_nano.a(lib_a-lock.o)
 .data          0x0000000000000000        0x0 /opt/gcc-arm-none-eabi-10-2020-q4-major/bin/../lib/gcc/arm-none-eabi/10.2.1/../../../../arm-none-eabi/lib/thumb/v7e-m+fp/hard/libc_nano.a(lib_a-memchr.o)
 .bss           0x0000000000000000        0x0 /opt/gcc-arm-none-eabi-10-2020-q4-major/bin/../lib/gcc/arm-none-eabi/10.2.1/../../../../arm-none-eabi/lib/thumb/v7e-m+fp/hard/libc_nano.a(lib_a-memchr.o)
 .text          0x0000000000000000        0x0 /opt/gcc-arm-none-eabi-10-2020-q4-major/bin/../lib/gcc/arm-none-eabi/10.2.1/../../../../arm-none-eabi/lib/thumb/v7e-m+fp/hard/libc_nano.a(lib_a-memmove.o)
 .data          0x0000000000000000        0x0 /opt/gcc-arm-none-eabi-10-2020-q4-major/bin/../lib/gcc/arm-none-eabi/10.2.1/../../../../arm-none-eabi/lib/thumb/v7e-m+fp/hard/libc_nano.a(lib_a-memmove.o)
 .bss           0x0000000000000000        0x0 /opt/gcc-arm-none-eabi-10-2020-q4-major/bin/../lib/gcc/arm-none-eabi/10.2.1/../../../../arm-none-eabi/lib/thumb/v7e-m+fp/hard/libc_nano.a(lib_a-memmove.o)
 .text          0x0000000000000000        0x0 /opt/gcc-arm-none-eabi-10-2020-q4-major/bin/../lib/gcc/arm-none-eabi/10.2.1/../../../../arm-none-eabi/lib/thumb/v7e-m+fp/hard/libc_nano.a(lib_a-nano-reallocr.o)
 .data          0x0000000000000000        0x0 /opt/gcc-arm-none-eabi-10-2020-q4-major/bin/../lib/gcc/arm-none-eabi/10.2.1/../../../../arm-none-eabi/lib/thumb/v7e-m+fp/hard/libc_nano.a(lib_a-nano-reallocr.o)
 .bss           0x0000000000000000        0x0 /opt/gcc-arm-none-eabi-10-2020-q4-major/bin/../lib/gcc/arm-none-eabi/10.2.1/../../../../arm-none-eabi/lib/thumb/v7e-m+fp/hard/libc_nano.a(lib_a-nano-reallocr.o)
 .text          0x0000000000000000        0x0 /opt/gcc-arm-none-eabi-10-2020-q4-major/bin/../lib/gcc/arm-none-eabi/10.2.1/../../../../arm-none-eabi/lib/thumb/v7e-m+fp/hard/libc_nano.a(lib_a-nano-msizer.o)
 .data          0x0000000000000000        0x0 /opt/gcc-arm-none-eabi-10-2020-q4-major/bin/../lib/gcc/arm-none-eabi/10.2.1/../../../../arm-none-eabi/lib/thumb/v7e-m+fp/hard/libc_nano.a(lib_a-nano-msizer.o)
 .bss           0x0000000000000000        0x0 /opt/gcc-arm-none-eabi-10-2020-q4-major/bin/../lib/gcc/arm-none-eabi/10.2.1/../../../../arm-none-eabi/lib/thumb/v7e-m+fp/hard/libc_nano.a(lib_a-nano-msizer.o)
 .data          0x0000000000000000        0x0 /opt/gcc-arm-none-eabi-10-2020-q4-major/bin/../lib/gcc/arm-none-eabi/10.2.1/thumb/v7e-m+fp/hard/libgcc.a(_aeabi_uldivmod.o)
 .bss           0x0000000000000000        0x0 /opt/gcc-arm-none-eabi-10-2020-q4-major/bin/../lib/gcc/arm-none-eabi/10.2.1/thumb/v7e-m+fp/hard/libgcc.a(_aeabi_uldivmod.o)
 .data          0x0000000000000000        0x0 /opt/gcc-arm-none-eabi-10-2020-q4-major/bin/../lib/gcc/arm-none-eabi/10.2.1/thumb/v7e-m+fp/hard/libgcc.a(_udivmoddi4.o)
 .bss           0x0000000000000000        0x0 /opt/gcc-arm-none-eabi-10-2020-q4-major/bin/../lib/gcc/arm-none-eabi/10.2.1/thumb/v7e-m+fp/hard/libgcc.a(_udivmoddi4.o)
 .ARM.extab     0x0000000000000000        0x0 /opt/gcc-arm-none-eabi-10-2020-q4-major/bin/../lib/gcc/arm-none-eabi/10.2.1/thumb/v7e-m+fp/hard/libgcc.a(_udivmoddi4.o)
 .data          0x0000000000000000        0x0 /opt/gcc-arm-none-eabi-10-2020-q4-major/bin/../lib/gcc/arm-none-eabi/10.2.1/thumb/v7e-m+fp/hard/libgcc.a(_dvmd_tls.o)
 .bss           0x0000000000000000        0x0 /opt/gcc-arm-none-eabi-10-2020-q4-major/bin/../lib/gcc/arm-none-eabi/10.2.1/thumb/v7e-m+fp/hard/libgcc.a(_dvmd_tls.o)
 .text          0x0000000000000000        0x0 /opt/gcc-arm-none-eabi-10-2020-q4-major/bin/../lib/gcc/arm-none-eabi/10.2.1/../../../../arm-none-eabi/lib/thumb/v7e-m+fp/hard/libnosys.a(_exit.o)
 .data          0x0000000000000000        0x0 /opt/gcc-arm-none-eabi-10-2020-q4-major/bin/../lib/gcc/arm-none-eabi/10.2.1/../../../../arm-none-eabi/lib/thumb/v7e-m+fp/hard/libnosys.a(_exit.o)
 .bss           0x0000000000000000        0x0 /opt/gcc-arm-none-eabi-10-2020-q4-major/bin/../lib/gcc/arm-none-eabi/10.2.1/../../../../arm-none-eabi/lib/thumb/v7e-m+fp/hard/libnosys.a(_exit.o)
 .text          0x0000000000000000        0x0 /opt/gcc-arm-none-eabi-10-2020-q4-major/bin/../lib/gcc/arm-none-eabi/10.2.1/thumb/v7e-m+fp/hard/crtend.o
 .data          0x0000000000000000        0x0 /opt/gcc-arm-none-eabi-10-2020-q4-major/bin/../lib/gcc/arm-none-eabi/10.2.1/thumb/v7e-m+fp/hard/crtend.o
 .bss           0x0000000000000000        0x0 /opt/gcc-arm-none-eabi-10-2020-q4-major/bin/../lib/gcc/arm-none-eabi/10.2.1/thumb/v7e-m+fp/hard/crtend.o
 .rodata        0x0000000000000000       0x24 /opt/gcc-arm-none-eabi-10-2020-q4-major/bin/../lib/gcc/arm-none-eabi/10.2.1/thumb/v7e-m+fp/hard/crtend.o
 .eh_frame      0x0000000000000000        0x4 /opt/gcc-arm-none-eabi-10-2020-q4-major/bin/../lib/gcc/arm-none-eabi/10.2.1/thumb/v7e-m+fp/hard/crtend.o
 .ARM.attributes
                0x0000000000000000       0x32 /opt/gcc-arm-none-eabi-10-2020-q4-major/bin/../lib/gcc/arm-none-eabi/10.2.1/thumb/v7e-m+fp/hard/crtend.o
 .text          0x0000000000000000        0x0 /opt/gcc-arm-none-eabi-10-2020-q4-major/bin/../lib/gcc/arm-none-eabi/10.2.1/thumb/v7e-m+fp/hard/crtn.o
 .data          0x0000000000000000        0x0 /opt/gcc-arm-none-eabi-10-2020-q4-major/bin/../lib/gcc/arm-none-eabi/10.2.1/thumb/v7e-m+fp/hard/crtn.o
 .bss           0x0000000000000000        0x0 /opt/gcc-arm-none-eabi-10-2020-q4-major/bin/../lib/gcc/arm-none-eabi/10.2.1/thumb/v7e-m+fp/hard/crtn.o

Memory Configuration

Name             Origin             Length             Attributes
m_interrupts     0x000000001ffe0000 0x0000000000000240 xr
m_text           0x000000001ffe0240 0x000000000001fdc0 xr
m_data           0x0000000020000000 0x0000000000020000 rw
m_data2          0x0000000080000000 0x0000000001000000 rw
*default*        0x0000000000000000 0xffffffffffffffff

Linker script and memory map

LOAD /opt/gcc-arm-none-eabi-10-2020-q4-major/bin/../lib/gcc/arm-none-eabi/10.2.1/thumb/v7e-m+fp/hard/crti.o
LOAD /opt/gcc-arm-none-eabi-10-2020-q4-major/bin/../lib/gcc/arm-none-eabi/10.2.1/thumb/v7e-m+fp/hard/crtbegin.o
LOAD /opt/gcc-arm-none-eabi-10-2020-q4-major/bin/../lib/gcc/arm-none-eabi/10.2.1/../../../../arm-none-eabi/lib/thumb/v7e-m+fp/hard/crt0.o
LOAD CMakeFiles/low_power_usecases.elf.dir/home/nxf46594/projects/845/repo/SDK_2.9.1_EVK-MIMX8MM/boards/evkmimx8mm/rtos_examples/low_power_usecases/low_power_usecases.c.obj
LOAD CMakeFiles/low_power_usecases.elf.dir/home/nxf46594/projects/845/repo/SDK_2.9.1_EVK-MIMX8MM/boards/evkmimx8mm/rtos_examples/low_power_usecases/pin_mux.c.obj
LOAD CMakeFiles/low_power_usecases.elf.dir/home/nxf46594/projects/845/repo/SDK_2.9.1_EVK-MIMX8MM/boards/evkmimx8mm/rtos_examples/low_power_usecases/board.c.obj
LOAD CMakeFiles/low_power_usecases.elf.dir/home/nxf46594/projects/845/repo/SDK_2.9.1_EVK-MIMX8MM/boards/evkmimx8mm/rtos_examples/low_power_usecases/clock_config.c.obj
LOAD CMakeFiles/low_power_usecases.elf.dir/home/nxf46594/projects/845/repo/SDK_2.9.1_EVK-MIMX8MM/boards/evkmimx8mm/rtos_examples/low_power_usecases/empty_rsc_table.c.obj
LOAD CMakeFiles/low_power_usecases.elf.dir/home/nxf46594/projects/845/repo/SDK_2.9.1_EVK-MIMX8MM/devices/MIMX8MM6/drivers/fsl_gpio.c.obj
LOAD CMakeFiles/low_power_usecases.elf.dir/home/nxf46594/projects/845/repo/SDK_2.9.1_EVK-MIMX8MM/devices/MIMX8MM6/drivers/fsl_common.c.obj
LOAD CMakeFiles/low_power_usecases.elf.dir/home/nxf46594/projects/845/repo/SDK_2.9.1_EVK-MIMX8MM/devices/MIMX8MM6/drivers/fsl_clock.c.obj
LOAD CMakeFiles/low_power_usecases.elf.dir/home/nxf46594/projects/845/repo/SDK_2.9.1_EVK-MIMX8MM/rtos/freertos/freertos_kernel/portable/MemMang/heap_4.c.obj
LOAD CMakeFiles/low_power_usecases.elf.dir/home/nxf46594/projects/845/repo/SDK_2.9.1_EVK-MIMX8MM/rtos/freertos/freertos_kernel/event_groups.c.obj
LOAD CMakeFiles/low_power_usecases.elf.dir/home/nxf46594/projects/845/repo/SDK_2.9.1_EVK-MIMX8MM/rtos/freertos/freertos_kernel/croutine.c.obj
LOAD CMakeFiles/low_power_usecases.elf.dir/home/nxf46594/projects/845/repo/SDK_2.9.1_EVK-MIMX8MM/rtos/freertos/freertos_kernel/list.c.obj
LOAD CMakeFiles/low_power_usecases.elf.dir/home/nxf46594/projects/845/repo/SDK_2.9.1_EVK-MIMX8MM/rtos/freertos/freertos_kernel/portable/GCC/ARM_CM4F/port.c.obj
LOAD CMakeFiles/low_power_usecases.elf.dir/home/nxf46594/projects/845/repo/SDK_2.9.1_EVK-MIMX8MM/rtos/freertos/freertos_kernel/queue.c.obj
LOAD CMakeFiles/low_power_usecases.elf.dir/home/nxf46594/projects/845/repo/SDK_2.9.1_EVK-MIMX8MM/rtos/freertos/freertos_kernel/stream_buffer.c.obj
LOAD CMakeFiles/low_power_usecases.elf.dir/home/nxf46594/projects/845/repo/SDK_2.9.1_EVK-MIMX8MM/rtos/freertos/freertos_kernel/tasks.c.obj
LOAD CMakeFiles/low_power_usecases.elf.dir/home/nxf46594/projects/845/repo/SDK_2.9.1_EVK-MIMX8MM/rtos/freertos/freertos_kernel/timers.c.obj
LOAD CMakeFiles/low_power_usecases.elf.dir/home/nxf46594/projects/845/repo/SDK_2.9.1_EVK-MIMX8MM/devices/MIMX8MM6/drivers/fsl_rdc.c.obj
LOAD CMakeFiles/low_power_usecases.elf.dir/home/nxf46594/projects/845/repo/SDK_2.9.1_EVK-MIMX8MM/devices/MIMX8MM6/utilities/str/fsl_str.c.obj
LOAD CMakeFiles/low_power_usecases.elf.dir/home/nxf46594/projects/845/repo/SDK_2.9.1_EVK-MIMX8MM/devices/MIMX8MM6/utilities/debug_console/fsl_debug_console.c.obj
LOAD CMakeFiles/low_power_usecases.elf.dir/home/nxf46594/projects/845/repo/SDK_2.9.1_EVK-MIMX8MM/components/serial_manager/fsl_component_serial_manager.c.obj
LOAD CMakeFiles/low_power_usecases.elf.dir/home/nxf46594/projects/845/repo/SDK_2.9.1_EVK-MIMX8MM/components/serial_manager/fsl_component_serial_port_uart.c.obj
LOAD CMakeFiles/low_power_usecases.elf.dir/home/nxf46594/projects/845/repo/SDK_2.9.1_EVK-MIMX8MM/devices/MIMX8MM6/drivers/fsl_uart.c.obj
LOAD CMakeFiles/low_power_usecases.elf.dir/home/nxf46594/projects/845/repo/SDK_2.9.1_EVK-MIMX8MM/components/uart/fsl_adapter_iuart.c.obj
LOAD CMakeFiles/low_power_usecases.elf.dir/home/nxf46594/projects/845/repo/SDK_2.9.1_EVK-MIMX8MM/components/lists/fsl_component_generic_list.c.obj
LOAD CMakeFiles/low_power_usecases.elf.dir/home/nxf46594/projects/845/repo/SDK_2.9.1_EVK-MIMX8MM/devices/MIMX8MM6/gcc/startup_MIMX8MM6_cm4.S.obj
LOAD CMakeFiles/low_power_usecases.elf.dir/home/nxf46594/projects/845/repo/SDK_2.9.1_EVK-MIMX8MM/devices/MIMX8MM6/system_MIMX8MM6_cm4.c.obj
LOAD CMakeFiles/low_power_usecases.elf.dir/home/nxf46594/projects/845/repo/SDK_2.9.1_EVK-MIMX8MM/devices/MIMX8MM6/utilities/fsl_assert.c.obj
LOAD CMakeFiles/low_power_usecases.elf.dir/home/nxf46594/projects/845/repo/SDK_2.9.1_EVK-MIMX8MM/devices/MIMX8MM6/utilities/fsl_sbrk.c.obj
LOAD CMakeFiles/low_power_usecases.elf.dir/home/nxf46594/projects/845/repo/SDK_2.9.1_EVK-MIMX8MM/devices/MIMX8MM6/drivers/fsl_gpc.c.obj
LOAD CMakeFiles/low_power_usecases.elf.dir/home/nxf46594/projects/845/repo/SDK_2.9.1_EVK-MIMX8MM/devices/MIMX8MM6/drivers/fsl_gpt.c.obj
LOAD CMakeFiles/low_power_usecases.elf.dir/home/nxf46594/projects/845/repo/SDK_2.9.1_EVK-MIMX8MM/devices/MIMX8MM6/drivers/fsl_mu.c.obj
LOAD CMakeFiles/low_power_usecases.elf.dir/home/nxf46594/projects/845/repo/SDK_2.9.1_EVK-MIMX8MM/devices/MIMX8MM6/drivers/fsl_i2c.c.obj
LOAD CMakeFiles/low_power_usecases.elf.dir/home/nxf46594/projects/845/repo/SDK_2.9.1_EVK-MIMX8MM/devices/MIMX8MM6/drivers/fsl_i2c_freertos.c.obj
START GROUP
LOAD /opt/gcc-arm-none-eabi-10-2020-q4-major/bin/../lib/gcc/arm-none-eabi/10.2.1/../../../../arm-none-eabi/lib/thumb/v7e-m+fp/hard/libm.a
LOAD /opt/gcc-arm-none-eabi-10-2020-q4-major/bin/../lib/gcc/arm-none-eabi/10.2.1/../../../../arm-none-eabi/lib/thumb/v7e-m+fp/hard/libc_nano.a
LOAD /opt/gcc-arm-none-eabi-10-2020-q4-major/bin/../lib/gcc/arm-none-eabi/10.2.1/thumb/v7e-m+fp/hard/libgcc.a
LOAD /opt/gcc-arm-none-eabi-10-2020-q4-major/bin/../lib/gcc/arm-none-eabi/10.2.1/../../../../arm-none-eabi/lib/thumb/v7e-m+fp/hard/libnosys.a
END GROUP
START GROUP
LOAD /opt/gcc-arm-none-eabi-10-2020-q4-major/bin/../lib/gcc/arm-none-eabi/10.2.1/thumb/v7e-m+fp/hard/libgcc.a
LOAD /opt/gcc-arm-none-eabi-10-2020-q4-major/bin/../lib/gcc/arm-none-eabi/10.2.1/../../../../arm-none-eabi/lib/thumb/v7e-m+fp/hard/libg_nano.a
LOAD /opt/gcc-arm-none-eabi-10-2020-q4-major/bin/../lib/gcc/arm-none-eabi/10.2.1/../../../../arm-none-eabi/lib/thumb/v7e-m+fp/hard/libc_nano.a
END GROUP
START GROUP
LOAD /opt/gcc-arm-none-eabi-10-2020-q4-major/bin/../lib/gcc/arm-none-eabi/10.2.1/thumb/v7e-m+fp/hard/libgcc.a
LOAD /opt/gcc-arm-none-eabi-10-2020-q4-major/bin/../lib/gcc/arm-none-eabi/10.2.1/../../../../arm-none-eabi/lib/thumb/v7e-m+fp/hard/libc_nano.a
LOAD /opt/gcc-arm-none-eabi-10-2020-q4-major/bin/../lib/gcc/arm-none-eabi/10.2.1/../../../../arm-none-eabi/lib/thumb/v7e-m+fp/hard/libnosys.a
END GROUP
START GROUP
LOAD /opt/gcc-arm-none-eabi-10-2020-q4-major/bin/../lib/gcc/arm-none-eabi/10.2.1/thumb/v7e-m+fp/hard/libgcc.a
LOAD /opt/gcc-arm-none-eabi-10-2020-q4-major/bin/../lib/gcc/arm-none-eabi/10.2.1/../../../../arm-none-eabi/lib/thumb/v7e-m+fp/hard/libc_nano.a
LOAD /opt/gcc-arm-none-eabi-10-2020-q4-major/bin/../lib/gcc/arm-none-eabi/10.2.1/../../../../arm-none-eabi/lib/thumb/v7e-m+fp/hard/libnosys.a
END GROUP
LOAD /opt/gcc-arm-none-eabi-10-2020-q4-major/bin/../lib/gcc/arm-none-eabi/10.2.1/thumb/v7e-m+fp/hard/crtend.o
LOAD /opt/gcc-arm-none-eabi-10-2020-q4-major/bin/../lib/gcc/arm-none-eabi/10.2.1/thumb/v7e-m+fp/hard/crtn.o
                0x0000000000000400                HEAP_SIZE = DEFINED (__heap_size__)?__heap_size__:0x400
                0x0000000000000400                STACK_SIZE = DEFINED (__stack_size__)?__stack_size__:0x400

.interrupts     0x000000001ffe0000      0x240
                0x000000001ffe0000                __VECTOR_TABLE = .
                0x000000001ffe0000                __Vectors = .
                0x000000001ffe0000                . = ALIGN (0x4)
 *(.isr_vector)
 .isr_vector    0x000000001ffe0000      0x240 CMakeFiles/low_power_usecases.elf.dir/home/nxf46594/projects/845/repo/SDK_2.9.1_EVK-MIMX8MM/devices/MIMX8MM6/gcc/startup_MIMX8MM6_cm4.S.obj
                0x000000001ffe0000                __isr_vector
                0x000000001ffe0240                . = ALIGN (0x4)

.resource_table
                0x000000001ffe0240       0x10
                0x000000001ffe0240                . = ALIGN (0x8)
 *(.resource_table)
 .resource_table
                0x000000001ffe0240       0x10 CMakeFiles/low_power_usecases.elf.dir/home/nxf46594/projects/845/repo/SDK_2.9.1_EVK-MIMX8MM/boards/evkmimx8mm/rtos_examples/low_power_usecases/empty_rsc_table.c.obj
                0x000000001ffe0240                resource_table
                0x000000001ffe0250                . = ALIGN (0x8)

.text           0x000000001ffe0250     0x98e8
                0x000000001ffe0250                . = ALIGN (0x4)
 *(.text)
 .text          0x000000001ffe0250       0x40 /opt/gcc-arm-none-eabi-10-2020-q4-major/bin/../lib/gcc/arm-none-eabi/10.2.1/thumb/v7e-m+fp/hard/crtbegin.o
 .text          0x000000001ffe0290       0x7c /opt/gcc-arm-none-eabi-10-2020-q4-major/bin/../lib/gcc/arm-none-eabi/10.2.1/../../../../arm-none-eabi/lib/thumb/v7e-m+fp/hard/crt0.o
                0x000000001ffe0290                _stack_init
                0x000000001ffe0298                _mainCRTStartup
                0x000000001ffe0298                _start
 .text          0x000000001ffe030c      0x1a0 CMakeFiles/low_power_usecases.elf.dir/home/nxf46594/projects/845/repo/SDK_2.9.1_EVK-MIMX8MM/devices/MIMX8MM6/gcc/startup_MIMX8MM6_cm4.S.obj
                0x000000001ffe030c                Reset_Handler
                0x000000001ffe0398                Reserved96_IRQHandler
                0x000000001ffe0398                SJC_IRQHandler
                0x000000001ffe0398                DebugMon_Handler
                0x000000001ffe0398                DDR_PerformanceMonitor_IRQHandler
                0x000000001ffe0398                SRC_IRQHandler
                0x000000001ffe0398                GPIO2_Combined_0_15_IRQHandler
                0x000000001ffe0398                GPIO1_INT2_IRQHandler
                0x000000001ffe0398                PWM1_IRQHandler
                0x000000001ffe0398                CAAM_IRQ1_IRQHandler
                0x000000001ffe0398                CPU_Error_L2RAM_IRQHandler
                0x000000001ffe0398                CAAM_ERROR_IRQHandler
                0x000000001ffe0398                GPIO1_INT7_IRQHandler
                0x000000001ffe0398                Reserved59_IRQHandler
                0x000000001ffe0398                PCIE_CTRL1_IRQ0_IRQHandler
                0x000000001ffe0398                Reserved29_IRQHandler
                0x000000001ffe0398                QOS_IRQHandler
                0x000000001ffe0398                PDM_HWVAD_ERROR_IRQHandler
                0x000000001ffe0398                I2S2_DriverIRQHandler
                0x000000001ffe0398                GPIO5_Combined_0_15_IRQHandler
                0x000000001ffe0398                MIPI_DSI_IRQHandler
                0x000000001ffe0398                USB1_IRQHandler
                0x000000001ffe0398                ENET_1588_DriverIRQHandler
                0x000000001ffe0398                SNVS_IRQHandler
                0x000000001ffe0398                Reserved116_IRQHandler
                0x000000001ffe0398                SRC_Combined_IRQHandler
                0x000000001ffe0398                GPIO4_Combined_0_15_IRQHandler
                0x000000001ffe0398                Reserved92_IRQHandler
                0x000000001ffe0398                VPU_G1_IRQHandler
                0x000000001ffe0398                PERFMON1_IRQHandler
                0x000000001ffe0398                SCTR_IRQ0_IRQHandler
                0x000000001ffe0398                PWM3_IRQHandler
                0x000000001ffe0398                GPU2D_IRQHandler
                0x000000001ffe0398                HS_CP0_IRQHandler
                0x000000001ffe0398                UsageFault_Handler
                0x000000001ffe0398                WDOG1_IRQHandler
                0x000000001ffe0398                DAP_IRQHandler
                0x000000001ffe0398                TEMPMON_LOW_IRQHandler
                0x000000001ffe0398                DefaultISR
                0x000000001ffe0398                VPU_G2_IRQHandler
                0x000000001ffe0398                Reserved58_IRQHandler
                0x000000001ffe0398                I2S3_DriverIRQHandler
                0x000000001ffe0398                SDMA2_DriverIRQHandler
                0x000000001ffe0398                GPT3_IRQHandler
                0x000000001ffe0398                SNVS_Security_IRQHandler
                0x000000001ffe0398                USDHC1_DriverIRQHandler
                0x000000001ffe0398                GPIO1_INT0_IRQHandler
                0x000000001ffe0398                CCM_IRQ1_IRQHandler
                0x000000001ffe0398                CSU_IRQHandler
                0x000000001ffe0398                ENET_MAC0_Rx_Tx_Done2_DriverIRQHandler
                0x000000001ffe0398                ECSPI3_DriverIRQHandler
                0x000000001ffe0398                SDMA1_DriverIRQHandler
                0x000000001ffe0398                ENET_DriverIRQHandler
                0x000000001ffe0398                MIPI_CSI1_IRQHandler
                0x000000001ffe0398                ECSPI2_DriverIRQHandler
                0x000000001ffe0398                GPIO1_Combined_16_31_IRQHandler
                0x000000001ffe0398                CPU_CTI_Trigger_IRQHandler
                0x000000001ffe0398                PERFMON2_IRQHandler
                0x000000001ffe0398                QSPI_DriverIRQHandler
                0x000000001ffe0398                GPIO3_Combined_16_31_IRQHandler
                0x000000001ffe0398                CPU_Error_AXI_IRQHandler
                0x000000001ffe0398                CSI1_IRQHandler
                0x000000001ffe0398                RDC_IRQHandler
                0x000000001ffe0398                WDOG2_IRQHandler
                0x000000001ffe0398                GPIO1_INT5_IRQHandler
                0x000000001ffe0398                PWM2_IRQHandler
                0x000000001ffe0398                GPIO1_INT6_IRQHandler
                0x000000001ffe0398                SNVS_Consolidated_IRQHandler
                0x000000001ffe0398                I2S1_DriverIRQHandler
                0x000000001ffe0398                GPR_IRQ_IRQHandler
                0x000000001ffe0398                PCIE_CTRL1_IRQ1_IRQHandler
                0x000000001ffe0398                GPC_IRQHandler
                0x000000001ffe0398                GPIO3_Combined_0_15_IRQHandler
                0x000000001ffe0398                I2S56_DriverIRQHandler
                0x000000001ffe0398                SCTR_IRQ1_IRQHandler
                0x000000001ffe0398                GPMI_IRQHandler
                0x000000001ffe0398                GPIO5_Combined_16_31_IRQHandler
                0x000000001ffe0398                CPU_PerformanceUnit_IRQHandler
                0x000000001ffe0398                ENET_MAC0_Rx_Tx_Done1_DriverIRQHandler
                0x000000001ffe0398                PWM4_IRQHandler
                0x000000001ffe0398                TZASC_IRQHandler
                0x000000001ffe0398                MU_A53_IRQHandler
                0x000000001ffe0398                USDHC3_DriverIRQHandler
                0x000000001ffe0398                GPIO1_INT1_IRQHandler
                0x000000001ffe0398                DDR_IRQHandler
                0x000000001ffe0398                MU_M4_IRQHandler
                0x000000001ffe0398                PCIE_CTRL1_IRQHandler
                0x000000001ffe0398                HS_CP1_IRQHandler
                0x000000001ffe0398                GPIO1_INT4_IRQHandler
                0x000000001ffe0398                USDHC2_DriverIRQHandler
                0x000000001ffe0398                MemManage_Handler
                0x000000001ffe0398                Reserved90_IRQHandler
                0x000000001ffe0398                GPT4_IRQHandler
                0x000000001ffe0398                Reserved133_IRQHandler
                0x000000001ffe0398                PDM_EVENT_DriverIRQHandler
                0x000000001ffe0398                USB2_IRQHandler
                0x000000001ffe0398                PDM_HWVAD_EVENT_IRQHandler
                0x000000001ffe0398                BCH_IRQHandler
                0x000000001ffe0398                Reserved142_IRQHandler
                0x000000001ffe0398                VPU_H1_IRQHandler
                0x000000001ffe0398                GPIO1_INT3_IRQHandler
                0x000000001ffe0398                GPIO1_Combined_0_15_IRQHandler
                0x000000001ffe0398                Reserved91_IRQHandler
                0x000000001ffe0398                Reserved127_IRQHandler
                0x000000001ffe0398                SDMA3_DriverIRQHandler
                0x000000001ffe0398                ECSPI1_DriverIRQHandler
                0x000000001ffe0398                PCIE_CTRL1_IRQ3_IRQHandler
                0x000000001ffe0398                PCIE_CTRL1_IRQ2_IRQHandler
                0x000000001ffe0398                GPU3D_IRQHandler
                0x000000001ffe0398                APBHDMA_DriverIRQHandler
                0x000000001ffe0398                GPIO2_Combined_16_31_IRQHandler
                0x000000001ffe0398                SPDIF1_DriverIRQHandler
                0x000000001ffe0398                CAAM_IRQ2_IRQHandler
                0x000000001ffe0398                GPT2_IRQHandler
                0x000000001ffe0398                RTIC_IRQHandler
                0x000000001ffe0398                PDM_ERROR_IRQHandler
                0x000000001ffe0398                GPT5_IRQHandler
                0x000000001ffe0398                BusFault_Handler
                0x000000001ffe0398                GPIO4_Combined_16_31_IRQHandler
                0x000000001ffe0398                Reserved93_IRQHandler
                0x000000001ffe0398                GPT6_IRQHandler
                0x000000001ffe0398                CAAM_IRQ0_IRQHandler
                0x000000001ffe0398                CCM_IRQ2_IRQHandler
                0x000000001ffe0398                WDOG3_IRQHandler
                0x000000001ffe0398                LCDIF_IRQHandler
                0x000000001ffe039c                NMI_Handler
                0x000000001ffe03a0                HardFault_Handler
                0x000000001ffe03b0                SDMA1_IRQHandler
                0x000000001ffe03b4                SPDIF1_IRQHandler
                0x000000001ffe03b8                APBHDMA_IRQHandler
                0x000000001ffe03bc                USDHC1_IRQHandler
                0x000000001ffe03c0                USDHC2_IRQHandler
                0x000000001ffe03c4                USDHC3_IRQHandler
                0x000000001ffe03c8                UART1_IRQHandler
                0x000000001ffe03cc                UART2_IRQHandler
                0x000000001ffe03d0                UART3_IRQHandler
                0x000000001ffe03d4                UART4_IRQHandler
                0x000000001ffe03d8                ECSPI1_IRQHandler
                0x000000001ffe03dc                ECSPI2_IRQHandler
                0x000000001ffe03e0                ECSPI3_IRQHandler
                0x000000001ffe03e4                SDMA3_IRQHandler
                0x000000001ffe03e8                I2C1_IRQHandler
                0x000000001ffe03ec                I2C2_IRQHandler
                0x000000001ffe03f0                I2C3_IRQHandler
                0x000000001ffe03f4                I2C4_IRQHandler
                0x000000001ffe03f8                I2S3_IRQHandler
                0x000000001ffe03fc                I2S56_IRQHandler
                0x000000001ffe0400                I2S1_IRQHandler
                0x000000001ffe0404                I2S2_IRQHandler
                0x000000001ffe0408                SDMA2_IRQHandler
                0x000000001ffe040c                QSPI_IRQHandler
                0x000000001ffe0410                PDM_EVENT_IRQHandler
                0x000000001ffe0414                ENET_MAC0_Rx_Tx_Done1_IRQHandler
                0x000000001ffe0418                ENET_MAC0_Rx_Tx_Done2_IRQHandler
                0x000000001ffe041c                ENET_IRQHandler
                0x000000001ffe0420                ENET_1588_IRQHandler
 .text          0x000000001ffe04ac       0x10 /opt/gcc-arm-none-eabi-10-2020-q4-major/bin/../lib/gcc/arm-none-eabi/10.2.1/../../../../arm-none-eabi/lib/thumb/v7e-m+fp/hard/libc_nano.a(lib_a-strlen.o)
                0x000000001ffe04ac                strlen
 *fill*         0x000000001ffe04bc        0x4 
 .text          0x000000001ffe04c0       0xa0 /opt/gcc-arm-none-eabi-10-2020-q4-major/bin/../lib/gcc/arm-none-eabi/10.2.1/../../../../arm-none-eabi/lib/thumb/v7e-m+fp/hard/libc_nano.a(lib_a-memchr.o)
                0x000000001ffe04c0                memchr
 .text          0x000000001ffe0560       0x30 /opt/gcc-arm-none-eabi-10-2020-q4-major/bin/../lib/gcc/arm-none-eabi/10.2.1/thumb/v7e-m+fp/hard/libgcc.a(_aeabi_uldivmod.o)
                0x000000001ffe0560                __aeabi_uldivmod
 .text          0x000000001ffe0590      0x2d0 /opt/gcc-arm-none-eabi-10-2020-q4-major/bin/../lib/gcc/arm-none-eabi/10.2.1/thumb/v7e-m+fp/hard/libgcc.a(_udivmoddi4.o)
                0x000000001ffe0590                __udivmoddi4
 .text          0x000000001ffe0860        0x4 /opt/gcc-arm-none-eabi-10-2020-q4-major/bin/../lib/gcc/arm-none-eabi/10.2.1/thumb/v7e-m+fp/hard/libgcc.a(_dvmd_tls.o)
                0x000000001ffe0860                __aeabi_ldiv0
                0x000000001ffe0860                __aeabi_idiv0
 *(.text*)
 .text.__NVIC_EnableIRQ
                0x000000001ffe0864       0x3c CMakeFiles/low_power_usecases.elf.dir/home/nxf46594/projects/845/repo/SDK_2.9.1_EVK-MIMX8MM/boards/evkmimx8mm/rtos_examples/low_power_usecases/low_power_usecases.c.obj
 .text.__NVIC_SetPriority
                0x000000001ffe08a0       0x54 CMakeFiles/low_power_usecases.elf.dir/home/nxf46594/projects/845/repo/SDK_2.9.1_EVK-MIMX8MM/boards/evkmimx8mm/rtos_examples/low_power_usecases/low_power_usecases.c.obj
 .text.CLOCK_SetRootMux
                0x000000001ffe08f4       0x2c CMakeFiles/low_power_usecases.elf.dir/home/nxf46594/projects/845/repo/SDK_2.9.1_EVK-MIMX8MM/boards/evkmimx8mm/rtos_examples/low_power_usecases/low_power_usecases.c.obj
 .text.CLOCK_GetRootMux
                0x000000001ffe0920       0x1e CMakeFiles/low_power_usecases.elf.dir/home/nxf46594/projects/845/repo/SDK_2.9.1_EVK-MIMX8MM/boards/evkmimx8mm/rtos_examples/low_power_usecases/low_power_usecases.c.obj
 .text.CLOCK_GetRootPreDivider
                0x000000001ffe093e       0x20 CMakeFiles/low_power_usecases.elf.dir/home/nxf46594/projects/845/repo/SDK_2.9.1_EVK-MIMX8MM/boards/evkmimx8mm/rtos_examples/low_power_usecases/low_power_usecases.c.obj
 .text.CLOCK_GetRootPostDivider
                0x000000001ffe095e       0x1e CMakeFiles/low_power_usecases.elf.dir/home/nxf46594/projects/845/repo/SDK_2.9.1_EVK-MIMX8MM/boards/evkmimx8mm/rtos_examples/low_power_usecases/low_power_usecases.c.obj
 .text.EnableIRQ
                0x000000001ffe097c       0x32 CMakeFiles/low_power_usecases.elf.dir/home/nxf46594/projects/845/repo/SDK_2.9.1_EVK-MIMX8MM/boards/evkmimx8mm/rtos_examples/low_power_usecases/low_power_usecases.c.obj
 *fill*         0x000000001ffe09ae        0x2 
 .text.GPT_SetOscClockDivider
                0x000000001ffe09b0       0x48 CMakeFiles/low_power_usecases.elf.dir/home/nxf46594/projects/845/repo/SDK_2.9.1_EVK-MIMX8MM/boards/evkmimx8mm/rtos_examples/low_power_usecases/low_power_usecases.c.obj
 .text.GPT_GetOscClockDivider
                0x000000001ffe09f8       0x20 CMakeFiles/low_power_usecases.elf.dir/home/nxf46594/projects/845/repo/SDK_2.9.1_EVK-MIMX8MM/boards/evkmimx8mm/rtos_examples/low_power_usecases/low_power_usecases.c.obj
 .text.GPT_StartTimer
                0x000000001ffe0a18       0x20 CMakeFiles/low_power_usecases.elf.dir/home/nxf46594/projects/845/repo/SDK_2.9.1_EVK-MIMX8MM/boards/evkmimx8mm/rtos_examples/low_power_usecases/low_power_usecases.c.obj
 .text.GPT_StopTimer
                0x000000001ffe0a38       0x20 CMakeFiles/low_power_usecases.elf.dir/home/nxf46594/projects/845/repo/SDK_2.9.1_EVK-MIMX8MM/boards/evkmimx8mm/rtos_examples/low_power_usecases/low_power_usecases.c.obj
 .text.GPT_SetOutputCompareValue
                0x000000001ffe0a58       0x44 CMakeFiles/low_power_usecases.elf.dir/home/nxf46594/projects/845/repo/SDK_2.9.1_EVK-MIMX8MM/boards/evkmimx8mm/rtos_examples/low_power_usecases/low_power_usecases.c.obj
 .text.GPT_EnableInterrupts
                0x000000001ffe0a9c       0x22 CMakeFiles/low_power_usecases.elf.dir/home/nxf46594/projects/845/repo/SDK_2.9.1_EVK-MIMX8MM/boards/evkmimx8mm/rtos_examples/low_power_usecases/low_power_usecases.c.obj
 .text.GPT_ClearStatusFlags
                0x000000001ffe0abe       0x1e CMakeFiles/low_power_usecases.elf.dir/home/nxf46594/projects/845/repo/SDK_2.9.1_EVK-MIMX8MM/boards/evkmimx8mm/rtos_examples/low_power_usecases/low_power_usecases.c.obj
 .text.Peripheral_RdcSetting
                0x000000001ffe0adc       0x48 CMakeFiles/low_power_usecases.elf.dir/home/nxf46594/projects/845/repo/SDK_2.9.1_EVK-MIMX8MM/boards/evkmimx8mm/rtos_examples/low_power_usecases/low_power_usecases.c.obj
 .text.InitWakeupGPT
                0x000000001ffe0b24       0x40 CMakeFiles/low_power_usecases.elf.dir/home/nxf46594/projects/845/repo/SDK_2.9.1_EVK-MIMX8MM/boards/evkmimx8mm/rtos_examples/low_power_usecases/low_power_usecases.c.obj
 .text.SetWakeupConfig
                0x000000001ffe0b64       0x70 CMakeFiles/low_power_usecases.elf.dir/home/nxf46594/projects/845/repo/SDK_2.9.1_EVK-MIMX8MM/boards/evkmimx8mm/rtos_examples/low_power_usecases/low_power_usecases.c.obj
 .text.GPT1_IRQHandler
                0x000000001ffe0bd4       0x20 CMakeFiles/low_power_usecases.elf.dir/home/nxf46594/projects/845/repo/SDK_2.9.1_EVK-MIMX8MM/boards/evkmimx8mm/rtos_examples/low_power_usecases/low_power_usecases.c.obj
                0x000000001ffe0bd4                GPT1_IRQHandler
 .text.I2CInit  0x000000001ffe0bf4       0x80 CMakeFiles/low_power_usecases.elf.dir/home/nxf46594/projects/845/repo/SDK_2.9.1_EVK-MIMX8MM/boards/evkmimx8mm/rtos_examples/low_power_usecases/low_power_usecases.c.obj
 .text.I2CReceive
                0x000000001ffe0c74       0xa0 CMakeFiles/low_power_usecases.elf.dir/home/nxf46594/projects/845/repo/SDK_2.9.1_EVK-MIMX8MM/boards/evkmimx8mm/rtos_examples/low_power_usecases/low_power_usecases.c.obj
 .text.LPM_MCORE_GetPowerStatusString
                0x000000001ffe0d14       0x48 CMakeFiles/low_power_usecases.elf.dir/home/nxf46594/projects/845/repo/SDK_2.9.1_EVK-MIMX8MM/boards/evkmimx8mm/rtos_examples/low_power_usecases/low_power_usecases.c.obj
                0x000000001ffe0d14                LPM_MCORE_GetPowerStatusString
 .text.LPM_MCORE_ChangeM4Clock
                0x000000001ffe0d5c       0x6c CMakeFiles/low_power_usecases.elf.dir/home/nxf46594/projects/845/repo/SDK_2.9.1_EVK-MIMX8MM/boards/evkmimx8mm/rtos_examples/low_power_usecases/low_power_usecases.c.obj
                0x000000001ffe0d5c                LPM_MCORE_ChangeM4Clock
 .text.LPM_MCORE_SetPowerStatus
                0x000000001ffe0dc8       0x7c CMakeFiles/low_power_usecases.elf.dir/home/nxf46594/projects/845/repo/SDK_2.9.1_EVK-MIMX8MM/boards/evkmimx8mm/rtos_examples/low_power_usecases/low_power_usecases.c.obj
                0x000000001ffe0dc8                LPM_MCORE_SetPowerStatus
 .text.PreSleepProcessing
                0x000000001ffe0e44       0x18 CMakeFiles/low_power_usecases.elf.dir/home/nxf46594/projects/845/repo/SDK_2.9.1_EVK-MIMX8MM/boards/evkmimx8mm/rtos_examples/low_power_usecases/low_power_usecases.c.obj
                0x000000001ffe0e44                PreSleepProcessing
 .text.PostSleepProcessing
                0x000000001ffe0e5c       0x40 CMakeFiles/low_power_usecases.elf.dir/home/nxf46594/projects/845/repo/SDK_2.9.1_EVK-MIMX8MM/boards/evkmimx8mm/rtos_examples/low_power_usecases/low_power_usecases.c.obj
                0x000000001ffe0e5c                PostSleepProcessing
 .text.main     0x000000001ffe0e9c      0x124 CMakeFiles/low_power_usecases.elf.dir/home/nxf46594/projects/845/repo/SDK_2.9.1_EVK-MIMX8MM/boards/evkmimx8mm/rtos_examples/low_power_usecases/low_power_usecases.c.obj
                0x000000001ffe0e9c                main
 .text.low_power_task
                0x000000001ffe0fc0       0xe8 CMakeFiles/low_power_usecases.elf.dir/home/nxf46594/projects/845/repo/SDK_2.9.1_EVK-MIMX8MM/boards/evkmimx8mm/rtos_examples/low_power_usecases/low_power_usecases.c.obj
 .text.I2C_task
                0x000000001ffe10a8      0x138 CMakeFiles/low_power_usecases.elf.dir/home/nxf46594/projects/845/repo/SDK_2.9.1_EVK-MIMX8MM/boards/evkmimx8mm/rtos_examples/low_power_usecases/low_power_usecases.c.obj
 .text.IOMUXC_SetPinMux
                0x000000001ffe11e0       0x3e CMakeFiles/low_power_usecases.elf.dir/home/nxf46594/projects/845/repo/SDK_2.9.1_EVK-MIMX8MM/boards/evkmimx8mm/rtos_examples/low_power_usecases/pin_mux.c.obj
 .text.IOMUXC_SetPinConfig
                0x000000001ffe121e       0x26 CMakeFiles/low_power_usecases.elf.dir/home/nxf46594/projects/845/repo/SDK_2.9.1_EVK-MIMX8MM/boards/evkmimx8mm/rtos_examples/low_power_usecases/pin_mux.c.obj
 .text.BOARD_InitBootPins
                0x000000001ffe1244        0xc CMakeFiles/low_power_usecases.elf.dir/home/nxf46594/projects/845/repo/SDK_2.9.1_EVK-MIMX8MM/boards/evkmimx8mm/rtos_examples/low_power_usecases/pin_mux.c.obj
                0x000000001ffe1244                BOARD_InitBootPins
 .text.BOARD_InitPins
                0x000000001ffe1250       0xec CMakeFiles/low_power_usecases.elf.dir/home/nxf46594/projects/845/repo/SDK_2.9.1_EVK-MIMX8MM/boards/evkmimx8mm/rtos_examples/low_power_usecases/pin_mux.c.obj
                0x000000001ffe1250                BOARD_InitPins
 .text.CLOCK_GetRootPreDivider
                0x000000001ffe133c       0x20 CMakeFiles/low_power_usecases.elf.dir/home/nxf46594/projects/845/repo/SDK_2.9.1_EVK-MIMX8MM/boards/evkmimx8mm/rtos_examples/low_power_usecases/board.c.obj
 .text.CLOCK_GetRootPostDivider
                0x000000001ffe135c       0x1e CMakeFiles/low_power_usecases.elf.dir/home/nxf46594/projects/845/repo/SDK_2.9.1_EVK-MIMX8MM/boards/evkmimx8mm/rtos_examples/low_power_usecases/board.c.obj
 .text.CLOCK_ControlGate
                0x000000001ffe137a       0x1e CMakeFiles/low_power_usecases.elf.dir/home/nxf46594/projects/845/repo/SDK_2.9.1_EVK-MIMX8MM/boards/evkmimx8mm/rtos_examples/low_power_usecases/board.c.obj
 .text.BOARD_InitDebugConsole
                0x000000001ffe1398       0x4c CMakeFiles/low_power_usecases.elf.dir/home/nxf46594/projects/845/repo/SDK_2.9.1_EVK-MIMX8MM/boards/evkmimx8mm/rtos_examples/low_power_usecases/board.c.obj
                0x000000001ffe1398                BOARD_InitDebugConsole
 .text.BOARD_InitMemory
                0x000000001ffe13e4      0x140 CMakeFiles/low_power_usecases.elf.dir/home/nxf46594/projects/845/repo/SDK_2.9.1_EVK-MIMX8MM/boards/evkmimx8mm/rtos_examples/low_power_usecases/board.c.obj
                0x000000001ffe13e4                BOARD_InitMemory
 .text.BOARD_RdcInit
                0x000000001ffe1524       0xb4 CMakeFiles/low_power_usecases.elf.dir/home/nxf46594/projects/845/repo/SDK_2.9.1_EVK-MIMX8MM/boards/evkmimx8mm/rtos_examples/low_power_usecases/board.c.obj
                0x000000001ffe1524                BOARD_RdcInit
 .text.CLOCK_SetRootMux
                0x000000001ffe15d8       0x2c CMakeFiles/low_power_usecases.elf.dir/home/nxf46594/projects/845/repo/SDK_2.9.1_EVK-MIMX8MM/boards/evkmimx8mm/rtos_examples/low_power_usecases/clock_config.c.obj
 .text.BOARD_BootClockRUN
                0x000000001ffe1604       0xc0 CMakeFiles/low_power_usecases.elf.dir/home/nxf46594/projects/845/repo/SDK_2.9.1_EVK-MIMX8MM/boards/evkmimx8mm/rtos_examples/low_power_usecases/clock_config.c.obj
                0x000000001ffe1604                BOARD_BootClockRUN
 .text.CLOCK_SetRootDivider
                0x000000001ffe16c4       0x80 CMakeFiles/low_power_usecases.elf.dir/home/nxf46594/projects/845/repo/SDK_2.9.1_EVK-MIMX8MM/devices/MIMX8MM6/drivers/fsl_clock.c.obj
                0x000000001ffe16c4                CLOCK_SetRootDivider
 .text.CLOCK_EnableClock
                0x000000001ffe1744       0x56 CMakeFiles/low_power_usecases.elf.dir/home/nxf46594/projects/845/repo/SDK_2.9.1_EVK-MIMX8MM/devices/MIMX8MM6/drivers/fsl_clock.c.obj
                0x000000001ffe1744                CLOCK_EnableClock
 .text.CLOCK_DisableClock
                0x000000001ffe179a       0x50 CMakeFiles/low_power_usecases.elf.dir/home/nxf46594/projects/845/repo/SDK_2.9.1_EVK-MIMX8MM/devices/MIMX8MM6/drivers/fsl_clock.c.obj
                0x000000001ffe179a                CLOCK_DisableClock
 *fill*         0x000000001ffe17ea        0x2 
 .text.pvPortMalloc
                0x000000001ffe17ec      0x198 CMakeFiles/low_power_usecases.elf.dir/home/nxf46594/projects/845/repo/SDK_2.9.1_EVK-MIMX8MM/rtos/freertos/freertos_kernel/portable/MemMang/heap_4.c.obj
                0x000000001ffe17ec                pvPortMalloc
 .text.vPortFree
                0x000000001ffe1984       0xc4 CMakeFiles/low_power_usecases.elf.dir/home/nxf46594/projects/845/repo/SDK_2.9.1_EVK-MIMX8MM/rtos/freertos/freertos_kernel/portable/MemMang/heap_4.c.obj
                0x000000001ffe1984                vPortFree
 .text.prvHeapInit
                0x000000001ffe1a48       0xc4 CMakeFiles/low_power_usecases.elf.dir/home/nxf46594/projects/845/repo/SDK_2.9.1_EVK-MIMX8MM/rtos/freertos/freertos_kernel/portable/MemMang/heap_4.c.obj
 .text.prvInsertBlockIntoFreeList
                0x000000001ffe1b0c       0xb4 CMakeFiles/low_power_usecases.elf.dir/home/nxf46594/projects/845/repo/SDK_2.9.1_EVK-MIMX8MM/rtos/freertos/freertos_kernel/portable/MemMang/heap_4.c.obj
 .text.vListInitialise
                0x000000001ffe1bc0       0x40 CMakeFiles/low_power_usecases.elf.dir/home/nxf46594/projects/845/repo/SDK_2.9.1_EVK-MIMX8MM/rtos/freertos/freertos_kernel/list.c.obj
                0x000000001ffe1bc0                vListInitialise
 .text.vListInitialiseItem
                0x000000001ffe1c00       0x1a CMakeFiles/low_power_usecases.elf.dir/home/nxf46594/projects/845/repo/SDK_2.9.1_EVK-MIMX8MM/rtos/freertos/freertos_kernel/list.c.obj
                0x000000001ffe1c00                vListInitialiseItem
 .text.vListInsertEnd
                0x000000001ffe1c1a       0x48 CMakeFiles/low_power_usecases.elf.dir/home/nxf46594/projects/845/repo/SDK_2.9.1_EVK-MIMX8MM/rtos/freertos/freertos_kernel/list.c.obj
                0x000000001ffe1c1a                vListInsertEnd
 .text.vListInsert
                0x000000001ffe1c62       0x72 CMakeFiles/low_power_usecases.elf.dir/home/nxf46594/projects/845/repo/SDK_2.9.1_EVK-MIMX8MM/rtos/freertos/freertos_kernel/list.c.obj
                0x000000001ffe1c62                vListInsert
 .text.uxListRemove
                0x000000001ffe1cd4       0x54 CMakeFiles/low_power_usecases.elf.dir/home/nxf46594/projects/845/repo/SDK_2.9.1_EVK-MIMX8MM/rtos/freertos/freertos_kernel/list.c.obj
                0x000000001ffe1cd4                uxListRemove
 .text.pxPortInitialiseStack
                0x000000001ffe1d28       0x68 CMakeFiles/low_power_usecases.elf.dir/home/nxf46594/projects/845/repo/SDK_2.9.1_EVK-MIMX8MM/rtos/freertos/freertos_kernel/portable/GCC/ARM_CM4F/port.c.obj
                0x000000001ffe1d28                pxPortInitialiseStack
 .text.prvTaskExitError
                0x000000001ffe1d90       0x58 CMakeFiles/low_power_usecases.elf.dir/home/nxf46594/projects/845/repo/SDK_2.9.1_EVK-MIMX8MM/rtos/freertos/freertos_kernel/portable/GCC/ARM_CM4F/port.c.obj
 *fill*         0x000000001ffe1de8        0x8 
 .text.SVC_Handler
                0x000000001ffe1df0       0x28 CMakeFiles/low_power_usecases.elf.dir/home/nxf46594/projects/845/repo/SDK_2.9.1_EVK-MIMX8MM/rtos/freertos/freertos_kernel/portable/GCC/ARM_CM4F/port.c.obj
                0x000000001ffe1df0                SVC_Handler
 .text.prvPortStartFirstTask
                0x000000001ffe1e18       0x28 CMakeFiles/low_power_usecases.elf.dir/home/nxf46594/projects/845/repo/SDK_2.9.1_EVK-MIMX8MM/rtos/freertos/freertos_kernel/portable/GCC/ARM_CM4F/port.c.obj
 .text.xPortStartScheduler
                0x000000001ffe1e40      0x144 CMakeFiles/low_power_usecases.elf.dir/home/nxf46594/projects/845/repo/SDK_2.9.1_EVK-MIMX8MM/rtos/freertos/freertos_kernel/portable/GCC/ARM_CM4F/port.c.obj
                0x000000001ffe1e40                xPortStartScheduler
 .text.vPortEnterCritical
                0x000000001ffe1f84       0x60 CMakeFiles/low_power_usecases.elf.dir/home/nxf46594/projects/845/repo/SDK_2.9.1_EVK-MIMX8MM/rtos/freertos/freertos_kernel/portable/GCC/ARM_CM4F/port.c.obj
                0x000000001ffe1f84                vPortEnterCritical
 .text.vPortExitCritical
                0x000000001ffe1fe4       0x54 CMakeFiles/low_power_usecases.elf.dir/home/nxf46594/projects/845/repo/SDK_2.9.1_EVK-MIMX8MM/rtos/freertos/freertos_kernel/portable/GCC/ARM_CM4F/port.c.obj
                0x000000001ffe1fe4                vPortExitCritical
 *fill*         0x000000001ffe2038        0x8 
 .text.PendSV_Handler
                0x000000001ffe2040       0x68 CMakeFiles/low_power_usecases.elf.dir/home/nxf46594/projects/845/repo/SDK_2.9.1_EVK-MIMX8MM/rtos/freertos/freertos_kernel/portable/GCC/ARM_CM4F/port.c.obj
                0x000000001ffe2040                PendSV_Handler
 .text.SysTick_Handler
                0x000000001ffe20a8       0x44 CMakeFiles/low_power_usecases.elf.dir/home/nxf46594/projects/845/repo/SDK_2.9.1_EVK-MIMX8MM/rtos/freertos/freertos_kernel/portable/GCC/ARM_CM4F/port.c.obj
                0x000000001ffe20a8                SysTick_Handler
 .text.vPortSetupTimerInterrupt
                0x000000001ffe20ec       0x48 CMakeFiles/low_power_usecases.elf.dir/home/nxf46594/projects/845/repo/SDK_2.9.1_EVK-MIMX8MM/rtos/freertos/freertos_kernel/portable/GCC/ARM_CM4F/port.c.obj
                0x000000001ffe20ec                vPortSetupTimerInterrupt
 .text.vPortEnableVFP
                0x000000001ffe2134       0x14 CMakeFiles/low_power_usecases.elf.dir/home/nxf46594/projects/845/repo/SDK_2.9.1_EVK-MIMX8MM/rtos/freertos/freertos_kernel/portable/GCC/ARM_CM4F/port.c.obj
 .text.vPortValidateInterruptPriority
                0x000000001ffe2148       0x80 CMakeFiles/low_power_usecases.elf.dir/home/nxf46594/projects/845/repo/SDK_2.9.1_EVK-MIMX8MM/rtos/freertos/freertos_kernel/portable/GCC/ARM_CM4F/port.c.obj
                0x000000001ffe2148                vPortValidateInterruptPriority
 .text.xQueueGenericReset
                0x000000001ffe21c8       0xd0 CMakeFiles/low_power_usecases.elf.dir/home/nxf46594/projects/845/repo/SDK_2.9.1_EVK-MIMX8MM/rtos/freertos/freertos_kernel/queue.c.obj
                0x000000001ffe21c8                xQueueGenericReset
 .text.xQueueGenericCreate
                0x000000001ffe2298       0x6c CMakeFiles/low_power_usecases.elf.dir/home/nxf46594/projects/845/repo/SDK_2.9.1_EVK-MIMX8MM/rtos/freertos/freertos_kernel/queue.c.obj
                0x000000001ffe2298                xQueueGenericCreate
 .text.prvInitialiseNewQueue
                0x000000001ffe2304       0x46 CMakeFiles/low_power_usecases.elf.dir/home/nxf46594/projects/845/repo/SDK_2.9.1_EVK-MIMX8MM/rtos/freertos/freertos_kernel/queue.c.obj
 .text.prvInitialiseMutex
                0x000000001ffe234a       0x34 CMakeFiles/low_power_usecases.elf.dir/home/nxf46594/projects/845/repo/SDK_2.9.1_EVK-MIMX8MM/rtos/freertos/freertos_kernel/queue.c.obj
 .text.xQueueCreateMutex
                0x000000001ffe237e       0x30 CMakeFiles/low_power_usecases.elf.dir/home/nxf46594/projects/845/repo/SDK_2.9.1_EVK-MIMX8MM/rtos/freertos/freertos_kernel/queue.c.obj
                0x000000001ffe237e                xQueueCreateMutex
 *fill*         0x000000001ffe23ae        0x2 
 .text.xQueueGenericSend
                0x000000001ffe23b0      0x1fc CMakeFiles/low_power_usecases.elf.dir/home/nxf46594/projects/845/repo/SDK_2.9.1_EVK-MIMX8MM/rtos/freertos/freertos_kernel/queue.c.obj
                0x000000001ffe23b0                xQueueGenericSend
 .text.xQueueGenericSendFromISR
                0x000000001ffe25ac      0x136 CMakeFiles/low_power_usecases.elf.dir/home/nxf46594/projects/845/repo/SDK_2.9.1_EVK-MIMX8MM/rtos/freertos/freertos_kernel/queue.c.obj
                0x000000001ffe25ac                xQueueGenericSendFromISR
 .text.xQueueGiveFromISR
                0x000000001ffe26e2      0x11a CMakeFiles/low_power_usecases.elf.dir/home/nxf46594/projects/845/repo/SDK_2.9.1_EVK-MIMX8MM/rtos/freertos/freertos_kernel/queue.c.obj
                0x000000001ffe26e2                xQueueGiveFromISR
 .text.xQueueReceive
                0x000000001ffe27fc      0x1c0 CMakeFiles/low_power_usecases.elf.dir/home/nxf46594/projects/845/repo/SDK_2.9.1_EVK-MIMX8MM/rtos/freertos/freertos_kernel/queue.c.obj
                0x000000001ffe27fc                xQueueReceive
 .text.xQueueSemaphoreTake
                0x000000001ffe29bc      0x21c CMakeFiles/low_power_usecases.elf.dir/home/nxf46594/projects/845/repo/SDK_2.9.1_EVK-MIMX8MM/rtos/freertos/freertos_kernel/queue.c.obj
                0x000000001ffe29bc                xQueueSemaphoreTake
 .text.vQueueDelete
                0x000000001ffe2bd8       0x3c CMakeFiles/low_power_usecases.elf.dir/home/nxf46594/projects/845/repo/SDK_2.9.1_EVK-MIMX8MM/rtos/freertos/freertos_kernel/queue.c.obj
                0x000000001ffe2bd8                vQueueDelete
 .text.prvGetDisinheritPriorityAfterTimeout
                0x000000001ffe2c14       0x30 CMakeFiles/low_power_usecases.elf.dir/home/nxf46594/projects/845/repo/SDK_2.9.1_EVK-MIMX8MM/rtos/freertos/freertos_kernel/queue.c.obj
 .text.prvCopyDataToQueue
                0x000000001ffe2c44       0xd4 CMakeFiles/low_power_usecases.elf.dir/home/nxf46594/projects/845/repo/SDK_2.9.1_EVK-MIMX8MM/rtos/freertos/freertos_kernel/queue.c.obj
 .text.prvCopyDataFromQueue
                0x000000001ffe2d18       0x4c CMakeFiles/low_power_usecases.elf.dir/home/nxf46594/projects/845/repo/SDK_2.9.1_EVK-MIMX8MM/rtos/freertos/freertos_kernel/queue.c.obj
 .text.prvUnlockQueue
                0x000000001ffe2d64       0xa4 CMakeFiles/low_power_usecases.elf.dir/home/nxf46594/projects/845/repo/SDK_2.9.1_EVK-MIMX8MM/rtos/freertos/freertos_kernel/queue.c.obj
 .text.prvIsQueueEmpty
                0x000000001ffe2e08       0x2c CMakeFiles/low_power_usecases.elf.dir/home/nxf46594/projects/845/repo/SDK_2.9.1_EVK-MIMX8MM/rtos/freertos/freertos_kernel/queue.c.obj
 .text.prvIsQueueFull
                0x000000001ffe2e34       0x30 CMakeFiles/low_power_usecases.elf.dir/home/nxf46594/projects/845/repo/SDK_2.9.1_EVK-MIMX8MM/rtos/freertos/freertos_kernel/queue.c.obj
 .text.vQueueAddToRegistry
                0x000000001ffe2e64       0x54 CMakeFiles/low_power_usecases.elf.dir/home/nxf46594/projects/845/repo/SDK_2.9.1_EVK-MIMX8MM/rtos/freertos/freertos_kernel/queue.c.obj
                0x000000001ffe2e64                vQueueAddToRegistry
 .text.vQueueUnregisterQueue
                0x000000001ffe2eb8       0x54 CMakeFiles/low_power_usecases.elf.dir/home/nxf46594/projects/845/repo/SDK_2.9.1_EVK-MIMX8MM/rtos/freertos/freertos_kernel/queue.c.obj
                0x000000001ffe2eb8                vQueueUnregisterQueue
 .text.vQueueWaitForMessageRestricted
                0x000000001ffe2f0c       0x68 CMakeFiles/low_power_usecases.elf.dir/home/nxf46594/projects/845/repo/SDK_2.9.1_EVK-MIMX8MM/rtos/freertos/freertos_kernel/queue.c.obj
                0x000000001ffe2f0c                vQueueWaitForMessageRestricted
 .text.xTaskCreate
                0x000000001ffe2f74       0x82 CMakeFiles/low_power_usecases.elf.dir/home/nxf46594/projects/845/repo/SDK_2.9.1_EVK-MIMX8MM/rtos/freertos/freertos_kernel/tasks.c.obj
                0x000000001ffe2f74                xTaskCreate
 .text.prvInitialiseNewTask
                0x000000001ffe2ff6      0x14a CMakeFiles/low_power_usecases.elf.dir/home/nxf46594/projects/845/repo/SDK_2.9.1_EVK-MIMX8MM/rtos/freertos/freertos_kernel/tasks.c.obj
 .text.prvAddNewTaskToReadyList
                0x000000001ffe3140       0xdc CMakeFiles/low_power_usecases.elf.dir/home/nxf46594/projects/845/repo/SDK_2.9.1_EVK-MIMX8MM/rtos/freertos/freertos_kernel/tasks.c.obj
 .text.eTaskGetState
                0x000000001ffe321c       0xcc CMakeFiles/low_power_usecases.elf.dir/home/nxf46594/projects/845/repo/SDK_2.9.1_EVK-MIMX8MM/rtos/freertos/freertos_kernel/tasks.c.obj
                0x000000001ffe321c                eTaskGetState
 .text.vTaskStartScheduler
                0x000000001ffe32e8       0x9c CMakeFiles/low_power_usecases.elf.dir/home/nxf46594/projects/845/repo/SDK_2.9.1_EVK-MIMX8MM/rtos/freertos/freertos_kernel/tasks.c.obj
                0x000000001ffe32e8                vTaskStartScheduler
 .text.vTaskSuspendAll
                0x000000001ffe3384       0x1c CMakeFiles/low_power_usecases.elf.dir/home/nxf46594/projects/845/repo/SDK_2.9.1_EVK-MIMX8MM/rtos/freertos/freertos_kernel/tasks.c.obj
                0x000000001ffe3384                vTaskSuspendAll
 .text.xTaskResumeAll
                0x000000001ffe33a0      0x138 CMakeFiles/low_power_usecases.elf.dir/home/nxf46594/projects/845/repo/SDK_2.9.1_EVK-MIMX8MM/rtos/freertos/freertos_kernel/tasks.c.obj
                0x000000001ffe33a0                xTaskResumeAll
 .text.xTaskGetTickCount
                0x000000001ffe34d8       0x20 CMakeFiles/low_power_usecases.elf.dir/home/nxf46594/projects/845/repo/SDK_2.9.1_EVK-MIMX8MM/rtos/freertos/freertos_kernel/tasks.c.obj
                0x000000001ffe34d8                xTaskGetTickCount
 .text.uxTaskGetSystemState
                0x000000001ffe34f8      0x120 CMakeFiles/low_power_usecases.elf.dir/home/nxf46594/projects/845/repo/SDK_2.9.1_EVK-MIMX8MM/rtos/freertos/freertos_kernel/tasks.c.obj
                0x000000001ffe34f8                uxTaskGetSystemState
 .text.xTaskIncrementTick
                0x000000001ffe3618      0x170 CMakeFiles/low_power_usecases.elf.dir/home/nxf46594/projects/845/repo/SDK_2.9.1_EVK-MIMX8MM/rtos/freertos/freertos_kernel/tasks.c.obj
                0x000000001ffe3618                xTaskIncrementTick
 .text.vTaskSwitchContext
                0x000000001ffe3788       0xec CMakeFiles/low_power_usecases.elf.dir/home/nxf46594/projects/845/repo/SDK_2.9.1_EVK-MIMX8MM/rtos/freertos/freertos_kernel/tasks.c.obj
                0x000000001ffe3788                vTaskSwitchContext
 .text.vTaskPlaceOnEventList
                0x000000001ffe3874       0x48 CMakeFiles/low_power_usecases.elf.dir/home/nxf46594/projects/845/repo/SDK_2.9.1_EVK-MIMX8MM/rtos/freertos/freertos_kernel/tasks.c.obj
                0x000000001ffe3874                vTaskPlaceOnEventList
 .text.vTaskPlaceOnEventListRestricted
                0x000000001ffe38bc       0x58 CMakeFiles/low_power_usecases.elf.dir/home/nxf46594/projects/845/repo/SDK_2.9.1_EVK-MIMX8MM/rtos/freertos/freertos_kernel/tasks.c.obj
                0x000000001ffe38bc                vTaskPlaceOnEventListRestricted
 .text.xTaskRemoveFromEventList
                0x000000001ffe3914       0xc4 CMakeFiles/low_power_usecases.elf.dir/home/nxf46594/projects/845/repo/SDK_2.9.1_EVK-MIMX8MM/rtos/freertos/freertos_kernel/tasks.c.obj
                0x000000001ffe3914                xTaskRemoveFromEventList
 .text.vTaskInternalSetTimeOutState
                0x000000001ffe39d8       0x2c CMakeFiles/low_power_usecases.elf.dir/home/nxf46594/projects/845/repo/SDK_2.9.1_EVK-MIMX8MM/rtos/freertos/freertos_kernel/tasks.c.obj
                0x000000001ffe39d8                vTaskInternalSetTimeOutState
 .text.xTaskCheckForTimeOut
                0x000000001ffe3a04       0xc4 CMakeFiles/low_power_usecases.elf.dir/home/nxf46594/projects/845/repo/SDK_2.9.1_EVK-MIMX8MM/rtos/freertos/freertos_kernel/tasks.c.obj
                0x000000001ffe3a04                xTaskCheckForTimeOut
 .text.vTaskMissedYield
                0x000000001ffe3ac8       0x18 CMakeFiles/low_power_usecases.elf.dir/home/nxf46594/projects/845/repo/SDK_2.9.1_EVK-MIMX8MM/rtos/freertos/freertos_kernel/tasks.c.obj
                0x000000001ffe3ac8                vTaskMissedYield
 .text.prvIdleTask
                0x000000001ffe3ae0       0x30 CMakeFiles/low_power_usecases.elf.dir/home/nxf46594/projects/845/repo/SDK_2.9.1_EVK-MIMX8MM/rtos/freertos/freertos_kernel/tasks.c.obj
 .text.prvInitialiseTaskLists
                0x000000001ffe3b10       0x80 CMakeFiles/low_power_usecases.elf.dir/home/nxf46594/projects/845/repo/SDK_2.9.1_EVK-MIMX8MM/rtos/freertos/freertos_kernel/tasks.c.obj
 .text.prvCheckTasksWaitingTermination
                0x000000001ffe3b90       0x5c CMakeFiles/low_power_usecases.elf.dir/home/nxf46594/projects/845/repo/SDK_2.9.1_EVK-MIMX8MM/rtos/freertos/freertos_kernel/tasks.c.obj
 .text.vTaskGetInfo
                0x000000001ffe3bec       0xcc CMakeFiles/low_power_usecases.elf.dir/home/nxf46594/projects/845/repo/SDK_2.9.1_EVK-MIMX8MM/rtos/freertos/freertos_kernel/tasks.c.obj
                0x000000001ffe3bec                vTaskGetInfo
 .text.prvListTasksWithinSingleList
                0x000000001ffe3cb8       0xa4 CMakeFiles/low_power_usecases.elf.dir/home/nxf46594/projects/845/repo/SDK_2.9.1_EVK-MIMX8MM/rtos/freertos/freertos_kernel/tasks.c.obj
 .text.prvTaskCheckFreeStackSpace
                0x000000001ffe3d5c       0x38 CMakeFiles/low_power_usecases.elf.dir/home/nxf46594/projects/845/repo/SDK_2.9.1_EVK-MIMX8MM/rtos/freertos/freertos_kernel/tasks.c.obj
 .text.prvDeleteTCB
                0x000000001ffe3d94       0x20 CMakeFiles/low_power_usecases.elf.dir/home/nxf46594/projects/845/repo/SDK_2.9.1_EVK-MIMX8MM/rtos/freertos/freertos_kernel/tasks.c.obj
 .text.prvResetNextTaskUnblockTime
                0x000000001ffe3db4       0x40 CMakeFiles/low_power_usecases.elf.dir/home/nxf46594/projects/845/repo/SDK_2.9.1_EVK-MIMX8MM/rtos/freertos/freertos_kernel/tasks.c.obj
 .text.xTaskGetSchedulerState
                0x000000001ffe3df4       0x3c CMakeFiles/low_power_usecases.elf.dir/home/nxf46594/projects/845/repo/SDK_2.9.1_EVK-MIMX8MM/rtos/freertos/freertos_kernel/tasks.c.obj
                0x000000001ffe3df4                xTaskGetSchedulerState
 .text.xTaskPriorityInherit
                0x000000001ffe3e30       0xec CMakeFiles/low_power_usecases.elf.dir/home/nxf46594/projects/845/repo/SDK_2.9.1_EVK-MIMX8MM/rtos/freertos/freertos_kernel/tasks.c.obj
                0x000000001ffe3e30                xTaskPriorityInherit
 .text.xTaskPriorityDisinherit
                0x000000001ffe3f1c      0x10c CMakeFiles/low_power_usecases.elf.dir/home/nxf46594/projects/845/repo/SDK_2.9.1_EVK-MIMX8MM/rtos/freertos/freertos_kernel/tasks.c.obj
                0x000000001ffe3f1c                xTaskPriorityDisinherit
 .text.vTaskPriorityDisinheritAfterTimeout
                0x000000001ffe4028      0x11c CMakeFiles/low_power_usecases.elf.dir/home/nxf46594/projects/845/repo/SDK_2.9.1_EVK-MIMX8MM/rtos/freertos/freertos_kernel/tasks.c.obj
                0x000000001ffe4028                vTaskPriorityDisinheritAfterTimeout
 .text.prvWriteNameToBuffer
                0x000000001ffe4144       0x4a CMakeFiles/low_power_usecases.elf.dir/home/nxf46594/projects/845/repo/SDK_2.9.1_EVK-MIMX8MM/rtos/freertos/freertos_kernel/tasks.c.obj
 *fill*         0x000000001ffe418e        0x2 
 .text.vTaskGetRunTimeStats
                0x000000001ffe4190      0x108 CMakeFiles/low_power_usecases.elf.dir/home/nxf46594/projects/845/repo/SDK_2.9.1_EVK-MIMX8MM/rtos/freertos/freertos_kernel/tasks.c.obj
                0x000000001ffe4190                vTaskGetRunTimeStats
 .text.pvTaskIncrementMutexHeldCount
                0x000000001ffe4298       0x28 CMakeFiles/low_power_usecases.elf.dir/home/nxf46594/projects/845/repo/SDK_2.9.1_EVK-MIMX8MM/rtos/freertos/freertos_kernel/tasks.c.obj
                0x000000001ffe4298                pvTaskIncrementMutexHeldCount
 .text.ulTaskNotifyTake
                0x000000001ffe42c0       0x90 CMakeFiles/low_power_usecases.elf.dir/home/nxf46594/projects/845/repo/SDK_2.9.1_EVK-MIMX8MM/rtos/freertos/freertos_kernel/tasks.c.obj
                0x000000001ffe42c0                ulTaskNotifyTake
 .text.xTaskGenericNotify
                0x000000001ffe4350      0x16c CMakeFiles/low_power_usecases.elf.dir/home/nxf46594/projects/845/repo/SDK_2.9.1_EVK-MIMX8MM/rtos/freertos/freertos_kernel/tasks.c.obj
                0x000000001ffe4350                xTaskGenericNotify
 .text.prvAddCurrentTaskToDelayedList
                0x000000001ffe44bc       0xcc CMakeFiles/low_power_usecases.elf.dir/home/nxf46594/projects/845/repo/SDK_2.9.1_EVK-MIMX8MM/rtos/freertos/freertos_kernel/tasks.c.obj
 .text.xTimerCreateTimerTask
                0x000000001ffe4588       0x64 CMakeFiles/low_power_usecases.elf.dir/home/nxf46594/projects/845/repo/SDK_2.9.1_EVK-MIMX8MM/rtos/freertos/freertos_kernel/timers.c.obj
                0x000000001ffe4588                xTimerCreateTimerTask
 .text.xTimerGenericCommand
                0x000000001ffe45ec       0x9c CMakeFiles/low_power_usecases.elf.dir/home/nxf46594/projects/845/repo/SDK_2.9.1_EVK-MIMX8MM/rtos/freertos/freertos_kernel/timers.c.obj
                0x000000001ffe45ec                xTimerGenericCommand
 .text.prvProcessExpiredTimer
                0x000000001ffe4688       0x98 CMakeFiles/low_power_usecases.elf.dir/home/nxf46594/projects/845/repo/SDK_2.9.1_EVK-MIMX8MM/rtos/freertos/freertos_kernel/timers.c.obj
 .text.prvTimerTask
                0x000000001ffe4720       0x24 CMakeFiles/low_power_usecases.elf.dir/home/nxf46594/projects/845/repo/SDK_2.9.1_EVK-MIMX8MM/rtos/freertos/freertos_kernel/timers.c.obj
 .text.prvProcessTimerOrBlockTask
                0x000000001ffe4744       0x9c CMakeFiles/low_power_usecases.elf.dir/home/nxf46594/projects/845/repo/SDK_2.9.1_EVK-MIMX8MM/rtos/freertos/freertos_kernel/timers.c.obj
 .text.prvGetNextExpireTime
                0x000000001ffe47e0       0x48 CMakeFiles/low_power_usecases.elf.dir/home/nxf46594/projects/845/repo/SDK_2.9.1_EVK-MIMX8MM/rtos/freertos/freertos_kernel/timers.c.obj
 .text.prvSampleTimeNow
                0x000000001ffe4828       0x40 CMakeFiles/low_power_usecases.elf.dir/home/nxf46594/projects/845/repo/SDK_2.9.1_EVK-MIMX8MM/rtos/freertos/freertos_kernel/timers.c.obj
 .text.prvInsertTimerInActiveList
                0x000000001ffe4868       0x84 CMakeFiles/low_power_usecases.elf.dir/home/nxf46594/projects/845/repo/SDK_2.9.1_EVK-MIMX8MM/rtos/freertos/freertos_kernel/timers.c.obj
 .text.prvProcessReceivedCommands
                0x000000001ffe48ec      0x1c4 CMakeFiles/low_power_usecases.elf.dir/home/nxf46594/projects/845/repo/SDK_2.9.1_EVK-MIMX8MM/rtos/freertos/freertos_kernel/timers.c.obj
 .text.prvSwitchTimerLists
                0x000000001ffe4ab0       0xc8 CMakeFiles/low_power_usecases.elf.dir/home/nxf46594/projects/845/repo/SDK_2.9.1_EVK-MIMX8MM/rtos/freertos/freertos_kernel/timers.c.obj
 .text.prvCheckForValidListAndQueue
                0x000000001ffe4b78       0x6c CMakeFiles/low_power_usecases.elf.dir/home/nxf46594/projects/845/repo/SDK_2.9.1_EVK-MIMX8MM/rtos/freertos/freertos_kernel/timers.c.obj
 .text.RDC_SetMasterDomainAssignment
                0x000000001ffe4be4       0x48 CMakeFiles/low_power_usecases.elf.dir/home/nxf46594/projects/845/repo/SDK_2.9.1_EVK-MIMX8MM/devices/MIMX8MM6/drivers/fsl_rdc.c.obj
                0x000000001ffe4be4                RDC_SetMasterDomainAssignment
 .text.RDC_SetPeriphAccessConfig
                0x000000001ffe4c2c       0x74 CMakeFiles/low_power_usecases.elf.dir/home/nxf46594/projects/845/repo/SDK_2.9.1_EVK-MIMX8MM/devices/MIMX8MM6/drivers/fsl_rdc.c.obj
                0x000000001ffe4c2c                RDC_SetPeriphAccessConfig
 .text.RDC_GetDefaultPeriphAccessConfig
                0x000000001ffe4ca0       0x4c CMakeFiles/low_power_usecases.elf.dir/home/nxf46594/projects/845/repo/SDK_2.9.1_EVK-MIMX8MM/devices/MIMX8MM6/drivers/fsl_rdc.c.obj
                0x000000001ffe4ca0                RDC_GetDefaultPeriphAccessConfig
 .text.PrintGetWidth
                0x000000001ffe4cec       0x6a CMakeFiles/low_power_usecases.elf.dir/home/nxf46594/projects/845/repo/SDK_2.9.1_EVK-MIMX8MM/devices/MIMX8MM6/utilities/str/fsl_str.c.obj
 .text.PrintGetPrecision
                0x000000001ffe4d56       0x8c CMakeFiles/low_power_usecases.elf.dir/home/nxf46594/projects/845/repo/SDK_2.9.1_EVK-MIMX8MM/devices/MIMX8MM6/utilities/str/fsl_str.c.obj
 .text.PrintIsobpu
                0x000000001ffe4de2       0x38 CMakeFiles/low_power_usecases.elf.dir/home/nxf46594/projects/845/repo/SDK_2.9.1_EVK-MIMX8MM/devices/MIMX8MM6/utilities/str/fsl_str.c.obj
 .text.PrintIsdi
                0x000000001ffe4e1a       0x2c CMakeFiles/low_power_usecases.elf.dir/home/nxf46594/projects/845/repo/SDK_2.9.1_EVK-MIMX8MM/devices/MIMX8MM6/utilities/str/fsl_str.c.obj
 .text.PrintOutputdifFobpu
                0x000000001ffe4e46       0x44 CMakeFiles/low_power_usecases.elf.dir/home/nxf46594/projects/845/repo/SDK_2.9.1_EVK-MIMX8MM/devices/MIMX8MM6/utilities/str/fsl_str.c.obj
 .text.PrintOutputxX
                0x000000001ffe4e8a       0x44 CMakeFiles/low_power_usecases.elf.dir/home/nxf46594/projects/845/repo/SDK_2.9.1_EVK-MIMX8MM/devices/MIMX8MM6/utilities/str/fsl_str.c.obj
 .text.PrintIsfF
                0x000000001ffe4ece       0x2c CMakeFiles/low_power_usecases.elf.dir/home/nxf46594/projects/845/repo/SDK_2.9.1_EVK-MIMX8MM/devices/MIMX8MM6/utilities/str/fsl_str.c.obj
 .text.PrintIsxX
                0x000000001ffe4efa       0x2c CMakeFiles/low_power_usecases.elf.dir/home/nxf46594/projects/845/repo/SDK_2.9.1_EVK-MIMX8MM/devices/MIMX8MM6/utilities/str/fsl_str.c.obj
 .text.PrintFilterLengthFlag
                0x000000001ffe4f26       0x3e CMakeFiles/low_power_usecases.elf.dir/home/nxf46594/projects/845/repo/SDK_2.9.1_EVK-MIMX8MM/devices/MIMX8MM6/utilities/str/fsl_str.c.obj
 .text.PrintGetRadixFromobpu
                0x000000001ffe4f64       0x40 CMakeFiles/low_power_usecases.elf.dir/home/nxf46594/projects/845/repo/SDK_2.9.1_EVK-MIMX8MM/devices/MIMX8MM6/utilities/str/fsl_str.c.obj
 .text.ConvertRadixNumToString
                0x000000001ffe4fa4      0x110 CMakeFiles/low_power_usecases.elf.dir/home/nxf46594/projects/845/repo/SDK_2.9.1_EVK-MIMX8MM/devices/MIMX8MM6/utilities/str/fsl_str.c.obj
 .text.StrFormatPrintf
                0x000000001ffe50b4      0x290 CMakeFiles/low_power_usecases.elf.dir/home/nxf46594/projects/845/repo/SDK_2.9.1_EVK-MIMX8MM/devices/MIMX8MM6/utilities/str/fsl_str.c.obj
                0x000000001ffe50b4                StrFormatPrintf
 .text.DbgConsole_ReadOneCharacter
                0x000000001ffe5344       0x44 CMakeFiles/low_power_usecases.elf.dir/home/nxf46594/projects/845/repo/SDK_2.9.1_EVK-MIMX8MM/devices/MIMX8MM6/utilities/debug_console/fsl_debug_console.c.obj
                0x000000001ffe5344                DbgConsole_ReadOneCharacter
 .text.DbgConsole_SendDataReliable
                0x000000001ffe5388       0x50 CMakeFiles/low_power_usecases.elf.dir/home/nxf46594/projects/845/repo/SDK_2.9.1_EVK-MIMX8MM/devices/MIMX8MM6/utilities/debug_console/fsl_debug_console.c.obj
                0x000000001ffe5388                DbgConsole_SendDataReliable
 .text.DbgConsole_ReadCharacter
                0x000000001ffe53d8       0x44 CMakeFiles/low_power_usecases.elf.dir/home/nxf46594/projects/845/repo/SDK_2.9.1_EVK-MIMX8MM/devices/MIMX8MM6/utilities/debug_console/fsl_debug_console.c.obj
                0x000000001ffe53d8                DbgConsole_ReadCharacter
 .text.DbgConsole_PrintCallback
                0x000000001ffe541c       0x66 CMakeFiles/low_power_usecases.elf.dir/home/nxf46594/projects/845/repo/SDK_2.9.1_EVK-MIMX8MM/devices/MIMX8MM6/utilities/debug_console/fsl_debug_console.c.obj
 *fill*         0x000000001ffe5482        0x2 
 .text.DbgConsole_Init
                0x000000001ffe5484      0x118 CMakeFiles/low_power_usecases.elf.dir/home/nxf46594/projects/845/repo/SDK_2.9.1_EVK-MIMX8MM/devices/MIMX8MM6/utilities/debug_console/fsl_debug_console.c.obj
                0x000000001ffe5484                DbgConsole_Init
 .text.DbgConsole_Deinit
                0x000000001ffe559c       0x64 CMakeFiles/low_power_usecases.elf.dir/home/nxf46594/projects/845/repo/SDK_2.9.1_EVK-MIMX8MM/devices/MIMX8MM6/utilities/debug_console/fsl_debug_console.c.obj
                0x000000001ffe559c                DbgConsole_Deinit
 .text.DbgConsole_Printf
                0x000000001ffe5600       0x78 CMakeFiles/low_power_usecases.elf.dir/home/nxf46594/projects/845/repo/SDK_2.9.1_EVK-MIMX8MM/devices/MIMX8MM6/utilities/debug_console/fsl_debug_console.c.obj
                0x000000001ffe5600                DbgConsole_Printf
 .text.DbgConsole_Getchar
                0x000000001ffe5678       0x2c CMakeFiles/low_power_usecases.elf.dir/home/nxf46594/projects/845/repo/SDK_2.9.1_EVK-MIMX8MM/devices/MIMX8MM6/utilities/debug_console/fsl_debug_console.c.obj
                0x000000001ffe5678                DbgConsole_Getchar
 .text.DisableGlobalIRQ
                0x000000001ffe56a4       0x22 CMakeFiles/low_power_usecases.elf.dir/home/nxf46594/projects/845/repo/SDK_2.9.1_EVK-MIMX8MM/components/serial_manager/fsl_component_serial_manager.c.obj
 .text.EnableGlobalIRQ
                0x000000001ffe56c6       0x20 CMakeFiles/low_power_usecases.elf.dir/home/nxf46594/projects/845/repo/SDK_2.9.1_EVK-MIMX8MM/components/serial_manager/fsl_component_serial_manager.c.obj
 .text.SerialManager_StartWriting
                0x000000001ffe56e6       0x38 CMakeFiles/low_power_usecases.elf.dir/home/nxf46594/projects/845/repo/SDK_2.9.1_EVK-MIMX8MM/components/serial_manager/fsl_component_serial_manager.c.obj
 .text.SerialManager_StartReading
                0x000000001ffe571e       0x38 CMakeFiles/low_power_usecases.elf.dir/home/nxf46594/projects/845/repo/SDK_2.9.1_EVK-MIMX8MM/components/serial_manager/fsl_component_serial_manager.c.obj
 .text.SerialManager_Write
                0x000000001ffe5756       0x44 CMakeFiles/low_power_usecases.elf.dir/home/nxf46594/projects/845/repo/SDK_2.9.1_EVK-MIMX8MM/components/serial_manager/fsl_component_serial_manager.c.obj
 .text.SerialManager_Read
                0x000000001ffe579a       0x44 CMakeFiles/low_power_usecases.elf.dir/home/nxf46594/projects/845/repo/SDK_2.9.1_EVK-MIMX8MM/components/serial_manager/fsl_component_serial_manager.c.obj
 .text.SerialManager_Init
                0x000000001ffe57de       0x60 CMakeFiles/low_power_usecases.elf.dir/home/nxf46594/projects/845/repo/SDK_2.9.1_EVK-MIMX8MM/components/serial_manager/fsl_component_serial_manager.c.obj
                0x000000001ffe57de                SerialManager_Init
 .text.SerialManager_Deinit
                0x000000001ffe583e       0x5a CMakeFiles/low_power_usecases.elf.dir/home/nxf46594/projects/845/repo/SDK_2.9.1_EVK-MIMX8MM/components/serial_manager/fsl_component_serial_manager.c.obj
                0x000000001ffe583e                SerialManager_Deinit
 .text.SerialManager_OpenWriteHandle
                0x000000001ffe5898       0x50 CMakeFiles/low_power_usecases.elf.dir/home/nxf46594/projects/845/repo/SDK_2.9.1_EVK-MIMX8MM/components/serial_manager/fsl_component_serial_manager.c.obj
                0x000000001ffe5898                SerialManager_OpenWriteHandle
 .text.SerialManager_CloseWriteHandle
                0x000000001ffe58e8       0x50 CMakeFiles/low_power_usecases.elf.dir/home/nxf46594/projects/845/repo/SDK_2.9.1_EVK-MIMX8MM/components/serial_manager/fsl_component_serial_manager.c.obj
                0x000000001ffe58e8                SerialManager_CloseWriteHandle
 .text.SerialManager_OpenReadHandle
                0x000000001ffe5938       0x60 CMakeFiles/low_power_usecases.elf.dir/home/nxf46594/projects/845/repo/SDK_2.9.1_EVK-MIMX8MM/components/serial_manager/fsl_component_serial_manager.c.obj
                0x000000001ffe5938                SerialManager_OpenReadHandle
 .text.SerialManager_CloseReadHandle
                0x000000001ffe5998       0x4e CMakeFiles/low_power_usecases.elf.dir/home/nxf46594/projects/845/repo/SDK_2.9.1_EVK-MIMX8MM/components/serial_manager/fsl_component_serial_manager.c.obj
                0x000000001ffe5998                SerialManager_CloseReadHandle
 .text.SerialManager_WriteBlocking
                0x000000001ffe59e6       0x20 CMakeFiles/low_power_usecases.elf.dir/home/nxf46594/projects/845/repo/SDK_2.9.1_EVK-MIMX8MM/components/serial_manager/fsl_component_serial_manager.c.obj
                0x000000001ffe59e6                SerialManager_WriteBlocking
 .text.SerialManager_ReadBlocking
                0x000000001ffe5a06       0x20 CMakeFiles/low_power_usecases.elf.dir/home/nxf46594/projects/845/repo/SDK_2.9.1_EVK-MIMX8MM/components/serial_manager/fsl_component_serial_manager.c.obj
                0x000000001ffe5a06                SerialManager_ReadBlocking
 .text.Serial_UartInit
                0x000000001ffe5a26       0x3e CMakeFiles/low_power_usecases.elf.dir/home/nxf46594/projects/845/repo/SDK_2.9.1_EVK-MIMX8MM/components/serial_manager/fsl_component_serial_port_uart.c.obj
                0x000000001ffe5a26                Serial_UartInit
 .text.Serial_UartDeinit
                0x000000001ffe5a64       0x24 CMakeFiles/low_power_usecases.elf.dir/home/nxf46594/projects/845/repo/SDK_2.9.1_EVK-MIMX8MM/components/serial_manager/fsl_component_serial_port_uart.c.obj
                0x000000001ffe5a64                Serial_UartDeinit
 .text.Serial_UartWrite
                0x000000001ffe5a88       0x38 CMakeFiles/low_power_usecases.elf.dir/home/nxf46594/projects/845/repo/SDK_2.9.1_EVK-MIMX8MM/components/serial_manager/fsl_component_serial_port_uart.c.obj
                0x000000001ffe5a88                Serial_UartWrite
 .text.Serial_UartRead
                0x000000001ffe5ac0       0x38 CMakeFiles/low_power_usecases.elf.dir/home/nxf46594/projects/845/repo/SDK_2.9.1_EVK-MIMX8MM/components/serial_manager/fsl_component_serial_port_uart.c.obj
                0x000000001ffe5ac0                Serial_UartRead
 .text.UART_SoftwareReset
                0x000000001ffe5af8       0x36 CMakeFiles/low_power_usecases.elf.dir/home/nxf46594/projects/845/repo/SDK_2.9.1_EVK-MIMX8MM/devices/MIMX8MM6/drivers/fsl_uart.c.obj
 .text.UART_Enable
                0x000000001ffe5b2e       0x24 CMakeFiles/low_power_usecases.elf.dir/home/nxf46594/projects/845/repo/SDK_2.9.1_EVK-MIMX8MM/devices/MIMX8MM6/drivers/fsl_uart.c.obj
 .text.UART_Disable
                0x000000001ffe5b52       0x24 CMakeFiles/low_power_usecases.elf.dir/home/nxf46594/projects/845/repo/SDK_2.9.1_EVK-MIMX8MM/devices/MIMX8MM6/drivers/fsl_uart.c.obj
 .text.UART_WriteByte
                0x000000001ffe5b76       0x1e CMakeFiles/low_power_usecases.elf.dir/home/nxf46594/projects/845/repo/SDK_2.9.1_EVK-MIMX8MM/devices/MIMX8MM6/drivers/fsl_uart.c.obj
 .text.UART_ReadByte
                0x000000001ffe5b94       0x1a CMakeFiles/low_power_usecases.elf.dir/home/nxf46594/projects/845/repo/SDK_2.9.1_EVK-MIMX8MM/devices/MIMX8MM6/drivers/fsl_uart.c.obj
 *fill*         0x000000001ffe5bae        0x2 
 .text.UART_SetTxFifoWatermark
                0x000000001ffe5bb0       0x54 CMakeFiles/low_power_usecases.elf.dir/home/nxf46594/projects/845/repo/SDK_2.9.1_EVK-MIMX8MM/devices/MIMX8MM6/drivers/fsl_uart.c.obj
 .text.UART_SetRxRTSWatermark
                0x000000001ffe5c04       0x4c CMakeFiles/low_power_usecases.elf.dir/home/nxf46594/projects/845/repo/SDK_2.9.1_EVK-MIMX8MM/devices/MIMX8MM6/drivers/fsl_uart.c.obj
 .text.UART_SetRxFifoWatermark
                0x000000001ffe5c50       0x4c CMakeFiles/low_power_usecases.elf.dir/home/nxf46594/projects/845/repo/SDK_2.9.1_EVK-MIMX8MM/devices/MIMX8MM6/drivers/fsl_uart.c.obj
 .text.UART_EnableAutoBaudRate
                0x000000001ffe5c9c       0x50 CMakeFiles/low_power_usecases.elf.dir/home/nxf46594/projects/845/repo/SDK_2.9.1_EVK-MIMX8MM/devices/MIMX8MM6/drivers/fsl_uart.c.obj
 .text.UART_GetInstance
                0x000000001ffe5cec       0x60 CMakeFiles/low_power_usecases.elf.dir/home/nxf46594/projects/845/repo/SDK_2.9.1_EVK-MIMX8MM/devices/MIMX8MM6/drivers/fsl_uart.c.obj
                0x000000001ffe5cec                UART_GetInstance
 .text.UART_Init
                0x000000001ffe5d4c      0x1a0 CMakeFiles/low_power_usecases.elf.dir/home/nxf46594/projects/845/repo/SDK_2.9.1_EVK-MIMX8MM/devices/MIMX8MM6/drivers/fsl_uart.c.obj
                0x000000001ffe5d4c                UART_Init
 .text.UART_Deinit
                0x000000001ffe5eec       0x40 CMakeFiles/low_power_usecases.elf.dir/home/nxf46594/projects/845/repo/SDK_2.9.1_EVK-MIMX8MM/devices/MIMX8MM6/drivers/fsl_uart.c.obj
                0x000000001ffe5eec                UART_Deinit
 .text.UART_GetDefaultConfig
                0x000000001ffe5f2c       0x84 CMakeFiles/low_power_usecases.elf.dir/home/nxf46594/projects/845/repo/SDK_2.9.1_EVK-MIMX8MM/devices/MIMX8MM6/drivers/fsl_uart.c.obj
                0x000000001ffe5f2c                UART_GetDefaultConfig
 .text.UART_SetBaudRate
                0x000000001ffe5fb0      0x3b0 CMakeFiles/low_power_usecases.elf.dir/home/nxf46594/projects/845/repo/SDK_2.9.1_EVK-MIMX8MM/devices/MIMX8MM6/drivers/fsl_uart.c.obj
                0x000000001ffe5fb0                UART_SetBaudRate
 .text.UART_ClearStatusFlag
                0x000000001ffe6360       0x3c CMakeFiles/low_power_usecases.elf.dir/home/nxf46594/projects/845/repo/SDK_2.9.1_EVK-MIMX8MM/devices/MIMX8MM6/drivers/fsl_uart.c.obj
                0x000000001ffe6360                UART_ClearStatusFlag
 .text.UART_WriteBlocking
                0x000000001ffe639c       0x70 CMakeFiles/low_power_usecases.elf.dir/home/nxf46594/projects/845/repo/SDK_2.9.1_EVK-MIMX8MM/devices/MIMX8MM6/drivers/fsl_uart.c.obj
                0x000000001ffe639c                UART_WriteBlocking
 .text.UART_ReadBlocking
                0x000000001ffe640c       0xdc CMakeFiles/low_power_usecases.elf.dir/home/nxf46594/projects/845/repo/SDK_2.9.1_EVK-MIMX8MM/devices/MIMX8MM6/drivers/fsl_uart.c.obj
                0x000000001ffe640c                UART_ReadBlocking
 .text.UART1_DriverIRQHandler
                0x000000001ffe64e8       0x28 CMakeFiles/low_power_usecases.elf.dir/home/nxf46594/projects/845/repo/SDK_2.9.1_EVK-MIMX8MM/devices/MIMX8MM6/drivers/fsl_uart.c.obj
                0x000000001ffe64e8                UART1_DriverIRQHandler
 .text.UART2_DriverIRQHandler
                0x000000001ffe6510       0x28 CMakeFiles/low_power_usecases.elf.dir/home/nxf46594/projects/845/repo/SDK_2.9.1_EVK-MIMX8MM/devices/MIMX8MM6/drivers/fsl_uart.c.obj
                0x000000001ffe6510                UART2_DriverIRQHandler
 .text.UART3_DriverIRQHandler
                0x000000001ffe6538       0x28 CMakeFiles/low_power_usecases.elf.dir/home/nxf46594/projects/845/repo/SDK_2.9.1_EVK-MIMX8MM/devices/MIMX8MM6/drivers/fsl_uart.c.obj
                0x000000001ffe6538                UART3_DriverIRQHandler
 .text.UART4_DriverIRQHandler
                0x000000001ffe6560       0x28 CMakeFiles/low_power_usecases.elf.dir/home/nxf46594/projects/845/repo/SDK_2.9.1_EVK-MIMX8MM/devices/MIMX8MM6/drivers/fsl_uart.c.obj
                0x000000001ffe6560                UART4_DriverIRQHandler
 .text.HAL_UartGetStatus
                0x000000001ffe6588       0x22 CMakeFiles/low_power_usecases.elf.dir/home/nxf46594/projects/845/repo/SDK_2.9.1_EVK-MIMX8MM/components/uart/fsl_adapter_iuart.c.obj
 *fill*         0x000000001ffe65aa        0x2 
 .text.HAL_UartInit
                0x000000001ffe65ac      0x120 CMakeFiles/low_power_usecases.elf.dir/home/nxf46594/projects/845/repo/SDK_2.9.1_EVK-MIMX8MM/components/uart/fsl_adapter_iuart.c.obj
                0x000000001ffe65ac                HAL_UartInit
 .text.HAL_UartDeinit
                0x000000001ffe66cc       0x4c CMakeFiles/low_power_usecases.elf.dir/home/nxf46594/projects/845/repo/SDK_2.9.1_EVK-MIMX8MM/components/uart/fsl_adapter_iuart.c.obj
                0x000000001ffe66cc                HAL_UartDeinit
 .text.HAL_UartReceiveBlocking
                0x000000001ffe6718       0x8c CMakeFiles/low_power_usecases.elf.dir/home/nxf46594/projects/845/repo/SDK_2.9.1_EVK-MIMX8MM/components/uart/fsl_adapter_iuart.c.obj
                0x000000001ffe6718                HAL_UartReceiveBlocking
 .text.HAL_UartSendBlocking
                0x000000001ffe67a4       0x84 CMakeFiles/low_power_usecases.elf.dir/home/nxf46594/projects/845/repo/SDK_2.9.1_EVK-MIMX8MM/components/uart/fsl_adapter_iuart.c.obj
                0x000000001ffe67a4                HAL_UartSendBlocking
 .text.GetFracPllFreq
                0x000000001ffe6828      0x148 CMakeFiles/low_power_usecases.elf.dir/home/nxf46594/projects/845/repo/SDK_2.9.1_EVK-MIMX8MM/devices/MIMX8MM6/system_MIMX8MM6_cm4.c.obj
                0x000000001ffe6828                GetFracPllFreq
 .text.GetIntegerPllFreq
                0x000000001ffe6970       0xfc CMakeFiles/low_power_usecases.elf.dir/home/nxf46594/projects/845/repo/SDK_2.9.1_EVK-MIMX8MM/devices/MIMX8MM6/system_MIMX8MM6_cm4.c.obj
                0x000000001ffe6970                GetIntegerPllFreq
 .text.SystemInit
                0x000000001ffe6a6c       0x9c CMakeFiles/low_power_usecases.elf.dir/home/nxf46594/projects/845/repo/SDK_2.9.1_EVK-MIMX8MM/devices/MIMX8MM6/system_MIMX8MM6_cm4.c.obj
                0x000000001ffe6a6c                SystemInit
 .text.SystemCoreClockUpdate
                0x000000001ffe6b08      0x108 CMakeFiles/low_power_usecases.elf.dir/home/nxf46594/projects/845/repo/SDK_2.9.1_EVK-MIMX8MM/devices/MIMX8MM6/system_MIMX8MM6_cm4.c.obj
                0x000000001ffe6b08                SystemCoreClockUpdate
 .text.SystemInitHook
                0x000000001ffe6c10        0xe CMakeFiles/low_power_usecases.elf.dir/home/nxf46594/projects/845/repo/SDK_2.9.1_EVK-MIMX8MM/devices/MIMX8MM6/system_MIMX8MM6_cm4.c.obj
                0x000000001ffe6c10                SystemInitHook
 *fill*         0x000000001ffe6c1e        0x2 
 .text.__assert_func
                0x000000001ffe6c20       0x28 CMakeFiles/low_power_usecases.elf.dir/home/nxf46594/projects/845/repo/SDK_2.9.1_EVK-MIMX8MM/devices/MIMX8MM6/utilities/fsl_assert.c.obj
                0x000000001ffe6c20                __assert_func
 .text._sbrk    0x000000001ffe6c48       0x68 CMakeFiles/low_power_usecases.elf.dir/home/nxf46594/projects/845/repo/SDK_2.9.1_EVK-MIMX8MM/devices/MIMX8MM6/utilities/fsl_sbrk.c.obj
                0x000000001ffe6c48                _sbrk
 .text.GPC_Init
                0x000000001ffe6cb0       0xec CMakeFiles/low_power_usecases.elf.dir/home/nxf46594/projects/845/repo/SDK_2.9.1_EVK-MIMX8MM/devices/MIMX8MM6/drivers/fsl_gpc.c.obj
                0x000000001ffe6cb0                GPC_Init
 .text.GPC_EnableIRQ
                0x000000001ffe6d9c       0x60 CMakeFiles/low_power_usecases.elf.dir/home/nxf46594/projects/845/repo/SDK_2.9.1_EVK-MIMX8MM/devices/MIMX8MM6/drivers/fsl_gpc.c.obj
                0x000000001ffe6d9c                GPC_EnableIRQ
 .text.GPC_EnterWaitMode
                0x000000001ffe6dfc       0xc0 CMakeFiles/low_power_usecases.elf.dir/home/nxf46594/projects/845/repo/SDK_2.9.1_EVK-MIMX8MM/devices/MIMX8MM6/drivers/fsl_gpc.c.obj
                0x000000001ffe6dfc                GPC_EnterWaitMode
 .text.GPC_EnterStopMode
                0x000000001ffe6ebc       0xc0 CMakeFiles/low_power_usecases.elf.dir/home/nxf46594/projects/845/repo/SDK_2.9.1_EVK-MIMX8MM/devices/MIMX8MM6/drivers/fsl_gpc.c.obj
                0x000000001ffe6ebc                GPC_EnterStopMode
 .text.GPT_SoftwareReset
                0x000000001ffe6f7c       0x32 CMakeFiles/low_power_usecases.elf.dir/home/nxf46594/projects/845/repo/SDK_2.9.1_EVK-MIMX8MM/devices/MIMX8MM6/drivers/fsl_gpt.c.obj
 .text.GPT_SetClockSource
                0x000000001ffe6fae       0x50 CMakeFiles/low_power_usecases.elf.dir/home/nxf46594/projects/845/repo/SDK_2.9.1_EVK-MIMX8MM/devices/MIMX8MM6/drivers/fsl_gpt.c.obj
 *fill*         0x000000001ffe6ffe        0x2 
 .text.GPT_SetClockDivider
                0x000000001ffe7000       0x50 CMakeFiles/low_power_usecases.elf.dir/home/nxf46594/projects/845/repo/SDK_2.9.1_EVK-MIMX8MM/devices/MIMX8MM6/drivers/fsl_gpt.c.obj
 .text.GPT_GetInstance
                0x000000001ffe7050       0x58 CMakeFiles/low_power_usecases.elf.dir/home/nxf46594/projects/845/repo/SDK_2.9.1_EVK-MIMX8MM/devices/MIMX8MM6/drivers/fsl_gpt.c.obj
 .text.GPT_Init
                0x000000001ffe70a8       0xd0 CMakeFiles/low_power_usecases.elf.dir/home/nxf46594/projects/845/repo/SDK_2.9.1_EVK-MIMX8MM/devices/MIMX8MM6/drivers/fsl_gpt.c.obj
                0x000000001ffe70a8                GPT_Init
 .text.GPT_GetDefaultConfig
                0x000000001ffe7178       0x68 CMakeFiles/low_power_usecases.elf.dir/home/nxf46594/projects/845/repo/SDK_2.9.1_EVK-MIMX8MM/devices/MIMX8MM6/drivers/fsl_gpt.c.obj
                0x000000001ffe7178                GPT_GetDefaultConfig
 .text.MU_GetInstance
                0x000000001ffe71e0       0x54 CMakeFiles/low_power_usecases.elf.dir/home/nxf46594/projects/845/repo/SDK_2.9.1_EVK-MIMX8MM/devices/MIMX8MM6/drivers/fsl_mu.c.obj
 .text.MU_Init  0x000000001ffe7234       0x20 CMakeFiles/low_power_usecases.elf.dir/home/nxf46594/projects/845/repo/SDK_2.9.1_EVK-MIMX8MM/devices/MIMX8MM6/drivers/fsl_mu.c.obj
                0x000000001ffe7234                MU_Init
 .text.MU_SendMsg
                0x000000001ffe7254       0x54 CMakeFiles/low_power_usecases.elf.dir/home/nxf46594/projects/845/repo/SDK_2.9.1_EVK-MIMX8MM/devices/MIMX8MM6/drivers/fsl_mu.c.obj
                0x000000001ffe7254                MU_SendMsg
 .text.__NVIC_EnableIRQ
                0x000000001ffe72a8       0x3c CMakeFiles/low_power_usecases.elf.dir/home/nxf46594/projects/845/repo/SDK_2.9.1_EVK-MIMX8MM/devices/MIMX8MM6/drivers/fsl_i2c.c.obj
 .text.EnableIRQ
                0x000000001ffe72e4       0x32 CMakeFiles/low_power_usecases.elf.dir/home/nxf46594/projects/845/repo/SDK_2.9.1_EVK-MIMX8MM/devices/MIMX8MM6/drivers/fsl_i2c.c.obj
 .text.I2C_Enable
                0x000000001ffe7316       0x40 CMakeFiles/low_power_usecases.elf.dir/home/nxf46594/projects/845/repo/SDK_2.9.1_EVK-MIMX8MM/devices/MIMX8MM6/drivers/fsl_i2c.c.obj
 .text.I2C_MasterGetStatusFlags
                0x000000001ffe7356       0x1a CMakeFiles/low_power_usecases.elf.dir/home/nxf46594/projects/845/repo/SDK_2.9.1_EVK-MIMX8MM/devices/MIMX8MM6/drivers/fsl_i2c.c.obj
 .text.I2C_MasterClearStatusFlags
                0x000000001ffe7370       0x30 CMakeFiles/low_power_usecases.elf.dir/home/nxf46594/projects/845/repo/SDK_2.9.1_EVK-MIMX8MM/devices/MIMX8MM6/drivers/fsl_i2c.c.obj
 .text.I2C_GetInstance
                0x000000001ffe73a0       0x58 CMakeFiles/low_power_usecases.elf.dir/home/nxf46594/projects/845/repo/SDK_2.9.1_EVK-MIMX8MM/devices/MIMX8MM6/drivers/fsl_i2c.c.obj
 .text.I2C_WaitForStatusReady
                0x000000001ffe73f8       0x2c CMakeFiles/low_power_usecases.elf.dir/home/nxf46594/projects/845/repo/SDK_2.9.1_EVK-MIMX8MM/devices/MIMX8MM6/drivers/fsl_i2c.c.obj
 .text.I2C_InitTransferStateMachine
                0x000000001ffe7424       0xd8 CMakeFiles/low_power_usecases.elf.dir/home/nxf46594/projects/845/repo/SDK_2.9.1_EVK-MIMX8MM/devices/MIMX8MM6/drivers/fsl_i2c.c.obj
 .text.I2C_CheckAndClearError
                0x000000001ffe74fc       0x6e CMakeFiles/low_power_usecases.elf.dir/home/nxf46594/projects/845/repo/SDK_2.9.1_EVK-MIMX8MM/devices/MIMX8MM6/drivers/fsl_i2c.c.obj
 *fill*         0x000000001ffe756a        0x2 
 .text.I2C_MasterTransferRunStateMachine
                0x000000001ffe756c      0x270 CMakeFiles/low_power_usecases.elf.dir/home/nxf46594/projects/845/repo/SDK_2.9.1_EVK-MIMX8MM/devices/MIMX8MM6/drivers/fsl_i2c.c.obj
 .text.I2C_TransferCommonIRQHandler
                0x000000001ffe77dc       0x54 CMakeFiles/low_power_usecases.elf.dir/home/nxf46594/projects/845/repo/SDK_2.9.1_EVK-MIMX8MM/devices/MIMX8MM6/drivers/fsl_i2c.c.obj
 .text.I2C_MasterInit
                0x000000001ffe7830       0xa4 CMakeFiles/low_power_usecases.elf.dir/home/nxf46594/projects/845/repo/SDK_2.9.1_EVK-MIMX8MM/devices/MIMX8MM6/drivers/fsl_i2c.c.obj
                0x000000001ffe7830                I2C_MasterInit
 .text.I2C_MasterDeinit
                0x000000001ffe78d4       0x30 CMakeFiles/low_power_usecases.elf.dir/home/nxf46594/projects/845/repo/SDK_2.9.1_EVK-MIMX8MM/devices/MIMX8MM6/drivers/fsl_i2c.c.obj
                0x000000001ffe78d4                I2C_MasterDeinit
 .text.I2C_MasterGetDefaultConfig
                0x000000001ffe7904       0x4c CMakeFiles/low_power_usecases.elf.dir/home/nxf46594/projects/845/repo/SDK_2.9.1_EVK-MIMX8MM/devices/MIMX8MM6/drivers/fsl_i2c.c.obj
                0x000000001ffe7904                I2C_MasterGetDefaultConfig
 .text.I2C_EnableInterrupts
                0x000000001ffe7950       0x30 CMakeFiles/low_power_usecases.elf.dir/home/nxf46594/projects/845/repo/SDK_2.9.1_EVK-MIMX8MM/devices/MIMX8MM6/drivers/fsl_i2c.c.obj
                0x000000001ffe7950                I2C_EnableInterrupts
 .text.I2C_DisableInterrupts
                0x000000001ffe7980       0x30 CMakeFiles/low_power_usecases.elf.dir/home/nxf46594/projects/845/repo/SDK_2.9.1_EVK-MIMX8MM/devices/MIMX8MM6/drivers/fsl_i2c.c.obj
                0x000000001ffe7980                I2C_DisableInterrupts
 .text.I2C_MasterSetBaudRate
                0x000000001ffe79b0       0x8c CMakeFiles/low_power_usecases.elf.dir/home/nxf46594/projects/845/repo/SDK_2.9.1_EVK-MIMX8MM/devices/MIMX8MM6/drivers/fsl_i2c.c.obj
                0x000000001ffe79b0                I2C_MasterSetBaudRate
 .text.I2C_MasterStart
                0x000000001ffe7a3c       0x64 CMakeFiles/low_power_usecases.elf.dir/home/nxf46594/projects/845/repo/SDK_2.9.1_EVK-MIMX8MM/devices/MIMX8MM6/drivers/fsl_i2c.c.obj
                0x000000001ffe7a3c                I2C_MasterStart
 .text.I2C_MasterRepeatedStart
                0x000000001ffe7aa0       0x72 CMakeFiles/low_power_usecases.elf.dir/home/nxf46594/projects/845/repo/SDK_2.9.1_EVK-MIMX8MM/devices/MIMX8MM6/drivers/fsl_i2c.c.obj
                0x000000001ffe7aa0                I2C_MasterRepeatedStart
 .text.I2C_MasterStop
                0x000000001ffe7b12       0x36 CMakeFiles/low_power_usecases.elf.dir/home/nxf46594/projects/845/repo/SDK_2.9.1_EVK-MIMX8MM/devices/MIMX8MM6/drivers/fsl_i2c.c.obj
                0x000000001ffe7b12                I2C_MasterStop
 .text.I2C_MasterTransferCreateHandle
                0x000000001ffe7b48       0x84 CMakeFiles/low_power_usecases.elf.dir/home/nxf46594/projects/845/repo/SDK_2.9.1_EVK-MIMX8MM/devices/MIMX8MM6/drivers/fsl_i2c.c.obj
                0x000000001ffe7b48                I2C_MasterTransferCreateHandle
 .text.I2C_MasterTransferNonBlocking
                0x000000001ffe7bcc       0x7c CMakeFiles/low_power_usecases.elf.dir/home/nxf46594/projects/845/repo/SDK_2.9.1_EVK-MIMX8MM/devices/MIMX8MM6/drivers/fsl_i2c.c.obj
                0x000000001ffe7bcc                I2C_MasterTransferNonBlocking
 .text.I2C_MasterTransferHandleIRQ
                0x000000001ffe7c48       0xcc CMakeFiles/low_power_usecases.elf.dir/home/nxf46594/projects/845/repo/SDK_2.9.1_EVK-MIMX8MM/devices/MIMX8MM6/drivers/fsl_i2c.c.obj
                0x000000001ffe7c48                I2C_MasterTransferHandleIRQ
 .text.I2C1_DriverIRQHandler
                0x000000001ffe7d14       0x1c CMakeFiles/low_power_usecases.elf.dir/home/nxf46594/projects/845/repo/SDK_2.9.1_EVK-MIMX8MM/devices/MIMX8MM6/drivers/fsl_i2c.c.obj
                0x000000001ffe7d14                I2C1_DriverIRQHandler
 .text.I2C2_DriverIRQHandler
                0x000000001ffe7d30       0x1c CMakeFiles/low_power_usecases.elf.dir/home/nxf46594/projects/845/repo/SDK_2.9.1_EVK-MIMX8MM/devices/MIMX8MM6/drivers/fsl_i2c.c.obj
                0x000000001ffe7d30                I2C2_DriverIRQHandler
 .text.I2C3_DriverIRQHandler
                0x000000001ffe7d4c       0x1c CMakeFiles/low_power_usecases.elf.dir/home/nxf46594/projects/845/repo/SDK_2.9.1_EVK-MIMX8MM/devices/MIMX8MM6/drivers/fsl_i2c.c.obj
                0x000000001ffe7d4c                I2C3_DriverIRQHandler
 .text.I2C4_DriverIRQHandler
                0x000000001ffe7d68       0x1c CMakeFiles/low_power_usecases.elf.dir/home/nxf46594/projects/845/repo/SDK_2.9.1_EVK-MIMX8MM/devices/MIMX8MM6/drivers/fsl_i2c.c.obj
                0x000000001ffe7d68                I2C4_DriverIRQHandler
 .text.I2C_RTOS_Callback
                0x000000001ffe7d84       0x4c CMakeFiles/low_power_usecases.elf.dir/home/nxf46594/projects/845/repo/SDK_2.9.1_EVK-MIMX8MM/devices/MIMX8MM6/drivers/fsl_i2c_freertos.c.obj
 .text.I2C_RTOS_Init
                0x000000001ffe7dd0       0x9c CMakeFiles/low_power_usecases.elf.dir/home/nxf46594/projects/845/repo/SDK_2.9.1_EVK-MIMX8MM/devices/MIMX8MM6/drivers/fsl_i2c_freertos.c.obj
                0x000000001ffe7dd0                I2C_RTOS_Init
 .text.I2C_RTOS_Deinit
                0x000000001ffe7e6c       0x30 CMakeFiles/low_power_usecases.elf.dir/home/nxf46594/projects/845/repo/SDK_2.9.1_EVK-MIMX8MM/devices/MIMX8MM6/drivers/fsl_i2c_freertos.c.obj
                0x000000001ffe7e6c                I2C_RTOS_Deinit
 .text.I2C_RTOS_Transfer
                0x000000001ffe7e9c       0x76 CMakeFiles/low_power_usecases.elf.dir/home/nxf46594/projects/845/repo/SDK_2.9.1_EVK-MIMX8MM/devices/MIMX8MM6/drivers/fsl_i2c_freertos.c.obj
                0x000000001ffe7e9c                I2C_RTOS_Transfer
 *fill*         0x000000001ffe7f12        0x2 
 .text.__errno  0x000000001ffe7f14        0xc /opt/gcc-arm-none-eabi-10-2020-q4-major/bin/../lib/gcc/arm-none-eabi/10.2.1/../../../../arm-none-eabi/lib/thumb/v7e-m+fp/hard/libc_nano.a(lib_a-errno.o)
                0x000000001ffe7f14                __errno
 .text.exit     0x000000001ffe7f20       0x28 /opt/gcc-arm-none-eabi-10-2020-q4-major/bin/../lib/gcc/arm-none-eabi/10.2.1/../../../../arm-none-eabi/lib/thumb/v7e-m+fp/hard/libc_nano.a(lib_a-exit.o)
                0x000000001ffe7f20                exit
 .text.__libc_init_array
                0x000000001ffe7f48       0x48 /opt/gcc-arm-none-eabi-10-2020-q4-major/bin/../lib/gcc/arm-none-eabi/10.2.1/../../../../arm-none-eabi/lib/thumb/v7e-m+fp/hard/libc_nano.a(lib_a-init.o)
                0x000000001ffe7f48                __libc_init_array
 .text.memcpy   0x000000001ffe7f90       0x1c /opt/gcc-arm-none-eabi-10-2020-q4-major/bin/../lib/gcc/arm-none-eabi/10.2.1/../../../../arm-none-eabi/lib/thumb/v7e-m+fp/hard/libc_nano.a(lib_a-memcpy-stub.o)
                0x000000001ffe7f90                memcpy
 .text.memset   0x000000001ffe7fac       0x10 /opt/gcc-arm-none-eabi-10-2020-q4-major/bin/../lib/gcc/arm-none-eabi/10.2.1/../../../../arm-none-eabi/lib/thumb/v7e-m+fp/hard/libc_nano.a(lib_a-memset.o)
                0x000000001ffe7fac                memset
 .text._free_r  0x000000001ffe7fbc       0x98 /opt/gcc-arm-none-eabi-10-2020-q4-major/bin/../lib/gcc/arm-none-eabi/10.2.1/../../../../arm-none-eabi/lib/thumb/v7e-m+fp/hard/libc_nano.a(lib_a-nano-freer.o)
                0x000000001ffe7fbc                _free_r
 .text._malloc_r
                0x000000001ffe8054       0xb4 /opt/gcc-arm-none-eabi-10-2020-q4-major/bin/../lib/gcc/arm-none-eabi/10.2.1/../../../../arm-none-eabi/lib/thumb/v7e-m+fp/hard/libc_nano.a(lib_a-nano-mallocr.o)
                0x000000001ffe8054                _malloc_r
 .text._sbrk_r  0x000000001ffe8108       0x20 /opt/gcc-arm-none-eabi-10-2020-q4-major/bin/../lib/gcc/arm-none-eabi/10.2.1/../../../../arm-none-eabi/lib/thumb/v7e-m+fp/hard/libc_nano.a(lib_a-sbrkr.o)
                0x000000001ffe8108                _sbrk_r
 .text.sprintf  0x000000001ffe8128       0x40 /opt/gcc-arm-none-eabi-10-2020-q4-major/bin/../lib/gcc/arm-none-eabi/10.2.1/../../../../arm-none-eabi/lib/thumb/v7e-m+fp/hard/libc_nano.a(lib_a-sprintf.o)
                0x000000001ffe8128                sprintf
                0x000000001ffe8128                siprintf
 .text.strcpy   0x000000001ffe8168       0x10 /opt/gcc-arm-none-eabi-10-2020-q4-major/bin/../lib/gcc/arm-none-eabi/10.2.1/../../../../arm-none-eabi/lib/thumb/v7e-m+fp/hard/libc_nano.a(lib_a-strcpy.o)
                0x000000001ffe8168                strcpy
 .text.__malloc_lock
                0x000000001ffe8178        0xc /opt/gcc-arm-none-eabi-10-2020-q4-major/bin/../lib/gcc/arm-none-eabi/10.2.1/../../../../arm-none-eabi/lib/thumb/v7e-m+fp/hard/libc_nano.a(lib_a-mlock.o)
                0x000000001ffe8178                __malloc_lock
 .text.__malloc_unlock
                0x000000001ffe8184        0xc /opt/gcc-arm-none-eabi-10-2020-q4-major/bin/../lib/gcc/arm-none-eabi/10.2.1/../../../../arm-none-eabi/lib/thumb/v7e-m+fp/hard/libc_nano.a(lib_a-mlock.o)
                0x000000001ffe8184                __malloc_unlock
 .text.__ssputs_r
                0x000000001ffe8190       0xb6 /opt/gcc-arm-none-eabi-10-2020-q4-major/bin/../lib/gcc/arm-none-eabi/10.2.1/../../../../arm-none-eabi/lib/thumb/v7e-m+fp/hard/libc_nano.a(lib_a-nano-svfprintf.o)
                0x000000001ffe8190                __ssputs_r
 *fill*         0x000000001ffe8246        0x2 
 .text._svfprintf_r
                0x000000001ffe8248      0x200 /opt/gcc-arm-none-eabi-10-2020-q4-major/bin/../lib/gcc/arm-none-eabi/10.2.1/../../../../arm-none-eabi/lib/thumb/v7e-m+fp/hard/libc_nano.a(lib_a-nano-svfprintf.o)
                0x000000001ffe8248                _svfprintf_r
                0x000000001ffe8248                _svfiprintf_r
 .text._printf_common
                0x000000001ffe8448       0xda /opt/gcc-arm-none-eabi-10-2020-q4-major/bin/../lib/gcc/arm-none-eabi/10.2.1/../../../../arm-none-eabi/lib/thumb/v7e-m+fp/hard/libc_nano.a(lib_a-nano-vfprintf_i.o)
                0x000000001ffe8448                _printf_common
 *fill*         0x000000001ffe8522        0x2 
 .text._printf_i
                0x000000001ffe8524      0x24c /opt/gcc-arm-none-eabi-10-2020-q4-major/bin/../lib/gcc/arm-none-eabi/10.2.1/../../../../arm-none-eabi/lib/thumb/v7e-m+fp/hard/libc_nano.a(lib_a-nano-vfprintf_i.o)
                0x000000001ffe8524                _printf_i
 .text.__retarget_lock_acquire_recursive
                0x000000001ffe8770        0x2 /opt/gcc-arm-none-eabi-10-2020-q4-major/bin/../lib/gcc/arm-none-eabi/10.2.1/../../../../arm-none-eabi/lib/thumb/v7e-m+fp/hard/libc_nano.a(lib_a-lock.o)
                0x000000001ffe8770                __retarget_lock_acquire_recursive
 .text.__retarget_lock_release_recursive
                0x000000001ffe8772        0x2 /opt/gcc-arm-none-eabi-10-2020-q4-major/bin/../lib/gcc/arm-none-eabi/10.2.1/../../../../arm-none-eabi/lib/thumb/v7e-m+fp/hard/libc_nano.a(lib_a-lock.o)
                0x000000001ffe8772                __retarget_lock_release_recursive
 .text.memmove  0x000000001ffe8774       0x34 /opt/gcc-arm-none-eabi-10-2020-q4-major/bin/../lib/gcc/arm-none-eabi/10.2.1/../../../../arm-none-eabi/lib/thumb/v7e-m+fp/hard/libc_nano.a(lib_a-memmove.o)
                0x000000001ffe8774                memmove
 .text._realloc_r
                0x000000001ffe87a8       0x4c /opt/gcc-arm-none-eabi-10-2020-q4-major/bin/../lib/gcc/arm-none-eabi/10.2.1/../../../../arm-none-eabi/lib/thumb/v7e-m+fp/hard/libc_nano.a(lib_a-nano-reallocr.o)
                0x000000001ffe87a8                _realloc_r
 .text._malloc_usable_size_r
                0x000000001ffe87f4       0x10 /opt/gcc-arm-none-eabi-10-2020-q4-major/bin/../lib/gcc/arm-none-eabi/10.2.1/../../../../arm-none-eabi/lib/thumb/v7e-m+fp/hard/libc_nano.a(lib_a-nano-msizer.o)
                0x000000001ffe87f4                _malloc_usable_size_r
 .text._exit    0x000000001ffe8804        0x4 /opt/gcc-arm-none-eabi-10-2020-q4-major/bin/../lib/gcc/arm-none-eabi/10.2.1/../../../../arm-none-eabi/lib/thumb/v7e-m+fp/hard/libnosys.a(_exit.o)
                0x000000001ffe8804                _exit
 *(.rodata)
 .rodata        0x000000001ffe8808      0x25f CMakeFiles/low_power_usecases.elf.dir/home/nxf46594/projects/845/repo/SDK_2.9.1_EVK-MIMX8MM/boards/evkmimx8mm/rtos_examples/low_power_usecases/low_power_usecases.c.obj
 *fill*         0x000000001ffe8a67        0x1 
 .rodata        0x000000001ffe8a68       0xcb CMakeFiles/low_power_usecases.elf.dir/home/nxf46594/projects/845/repo/SDK_2.9.1_EVK-MIMX8MM/boards/evkmimx8mm/rtos_examples/low_power_usecases/board.c.obj
 *fill*         0x000000001ffe8b33        0x1 
 .rodata        0x000000001ffe8b34      0x166 CMakeFiles/low_power_usecases.elf.dir/home/nxf46594/projects/845/repo/SDK_2.9.1_EVK-MIMX8MM/devices/MIMX8MM6/drivers/fsl_clock.c.obj
 *fill*         0x000000001ffe8c9a        0x2 
 .rodata        0x000000001ffe8c9c      0x13c CMakeFiles/low_power_usecases.elf.dir/home/nxf46594/projects/845/repo/SDK_2.9.1_EVK-MIMX8MM/rtos/freertos/freertos_kernel/tasks.c.obj
                0x000000001ffe8dbc                portArch_Name
                0x000000001ffe8dc0                FreeRTOSDebugConfig
 .rodata        0x000000001ffe8dd8        0xd CMakeFiles/low_power_usecases.elf.dir/home/nxf46594/projects/845/repo/SDK_2.9.1_EVK-MIMX8MM/rtos/freertos/freertos_kernel/timers.c.obj
 *fill*         0x000000001ffe8de5        0x3 
 .rodata        0x000000001ffe8de8      0x142 CMakeFiles/low_power_usecases.elf.dir/home/nxf46594/projects/845/repo/SDK_2.9.1_EVK-MIMX8MM/devices/MIMX8MM6/drivers/fsl_rdc.c.obj
 *fill*         0x000000001ffe8f2a        0x2 
 .rodata        0x000000001ffe8f2c      0x26e CMakeFiles/low_power_usecases.elf.dir/home/nxf46594/projects/845/repo/SDK_2.9.1_EVK-MIMX8MM/devices/MIMX8MM6/drivers/fsl_uart.c.obj
 *fill*         0x000000001ffe919a        0x2 
 .rodata        0x000000001ffe919c       0xe7 CMakeFiles/low_power_usecases.elf.dir/home/nxf46594/projects/845/repo/SDK_2.9.1_EVK-MIMX8MM/components/uart/fsl_adapter_iuart.c.obj
 *fill*         0x000000001ffe9283        0x1 
 .rodata        0x000000001ffe9284       0x3e CMakeFiles/low_power_usecases.elf.dir/home/nxf46594/projects/845/repo/SDK_2.9.1_EVK-MIMX8MM/devices/MIMX8MM6/utilities/fsl_assert.c.obj
 *fill*         0x000000001ffe92c2        0x2 
 .rodata        0x000000001ffe92c4       0xf2 CMakeFiles/low_power_usecases.elf.dir/home/nxf46594/projects/845/repo/SDK_2.9.1_EVK-MIMX8MM/devices/MIMX8MM6/drivers/fsl_gpc.c.obj
 *fill*         0x000000001ffe93b6        0x2 
 .rodata        0x000000001ffe93b8      0x127 CMakeFiles/low_power_usecases.elf.dir/home/nxf46594/projects/845/repo/SDK_2.9.1_EVK-MIMX8MM/devices/MIMX8MM6/drivers/fsl_gpt.c.obj
 *fill*         0x000000001ffe94df        0x1 
 .rodata        0x000000001ffe94e0       0xab CMakeFiles/low_power_usecases.elf.dir/home/nxf46594/projects/845/repo/SDK_2.9.1_EVK-MIMX8MM/devices/MIMX8MM6/drivers/fsl_mu.c.obj
 *fill*         0x000000001ffe958b        0x1 
 .rodata        0x000000001ffe958c      0x113 CMakeFiles/low_power_usecases.elf.dir/home/nxf46594/projects/845/repo/SDK_2.9.1_EVK-MIMX8MM/devices/MIMX8MM6/drivers/fsl_i2c.c.obj
 *(.rodata*)
 *fill*         0x000000001ffe969f        0x1 
 .rodata.__func__.5
                0x000000001ffe96a0       0x17 CMakeFiles/low_power_usecases.elf.dir/home/nxf46594/projects/845/repo/SDK_2.9.1_EVK-MIMX8MM/boards/evkmimx8mm/rtos_examples/low_power_usecases/low_power_usecases.c.obj
 *fill*         0x000000001ffe96b7        0x1 
 .rodata.__func__.4
                0x000000001ffe96b8       0x1a CMakeFiles/low_power_usecases.elf.dir/home/nxf46594/projects/845/repo/SDK_2.9.1_EVK-MIMX8MM/boards/evkmimx8mm/rtos_examples/low_power_usecases/low_power_usecases.c.obj
 *fill*         0x000000001ffe96d2        0x2 
 .rodata.__func__.3
                0x000000001ffe96d4        0x8 CMakeFiles/low_power_usecases.elf.dir/home/nxf46594/projects/845/repo/SDK_2.9.1_EVK-MIMX8MM/boards/evkmimx8mm/rtos_examples/low_power_usecases/low_power_usecases.c.obj
 .rodata.__func__.2
                0x000000001ffe96dc        0xb CMakeFiles/low_power_usecases.elf.dir/home/nxf46594/projects/845/repo/SDK_2.9.1_EVK-MIMX8MM/boards/evkmimx8mm/rtos_examples/low_power_usecases/low_power_usecases.c.obj
 *fill*         0x000000001ffe96e7        0x1 
 .rodata.__func__.1
                0x000000001ffe96e8        0xf CMakeFiles/low_power_usecases.elf.dir/home/nxf46594/projects/845/repo/SDK_2.9.1_EVK-MIMX8MM/boards/evkmimx8mm/rtos_examples/low_power_usecases/low_power_usecases.c.obj
 *fill*         0x000000001ffe96f7        0x1 
 .rodata.__func__.0
                0x000000001ffe96f8        0x9 CMakeFiles/low_power_usecases.elf.dir/home/nxf46594/projects/845/repo/SDK_2.9.1_EVK-MIMX8MM/boards/evkmimx8mm/rtos_examples/low_power_usecases/low_power_usecases.c.obj
 *fill*         0x000000001ffe9701        0x3 
 .rodata.__func__.0
                0x000000001ffe9704       0x11 CMakeFiles/low_power_usecases.elf.dir/home/nxf46594/projects/845/repo/SDK_2.9.1_EVK-MIMX8MM/boards/evkmimx8mm/rtos_examples/low_power_usecases/board.c.obj
 *fill*         0x000000001ffe9715        0x3 
 .rodata.__func__.1
                0x000000001ffe9718       0x15 CMakeFiles/low_power_usecases.elf.dir/home/nxf46594/projects/845/repo/SDK_2.9.1_EVK-MIMX8MM/devices/MIMX8MM6/drivers/fsl_clock.c.obj
 *fill*         0x000000001ffe972d        0x3 
 .rodata.__func__.6
                0x000000001ffe9730       0x1e CMakeFiles/low_power_usecases.elf.dir/home/nxf46594/projects/845/repo/SDK_2.9.1_EVK-MIMX8MM/devices/MIMX8MM6/drivers/fsl_rdc.c.obj
 *fill*         0x000000001ffe974e        0x2 
 .rodata.__func__.4
                0x000000001ffe9750       0x1a CMakeFiles/low_power_usecases.elf.dir/home/nxf46594/projects/845/repo/SDK_2.9.1_EVK-MIMX8MM/devices/MIMX8MM6/drivers/fsl_rdc.c.obj
 *fill*         0x000000001ffe976a        0x2 
 .rodata.__func__.3
                0x000000001ffe976c       0x21 CMakeFiles/low_power_usecases.elf.dir/home/nxf46594/projects/845/repo/SDK_2.9.1_EVK-MIMX8MM/devices/MIMX8MM6/drivers/fsl_rdc.c.obj
 *fill*         0x000000001ffe978d        0x3 
 .rodata.s_uartBases
                0x000000001ffe9790       0x14 CMakeFiles/low_power_usecases.elf.dir/home/nxf46594/projects/845/repo/SDK_2.9.1_EVK-MIMX8MM/devices/MIMX8MM6/drivers/fsl_uart.c.obj
 .rodata.s_uartClock
                0x000000001ffe97a4       0x14 CMakeFiles/low_power_usecases.elf.dir/home/nxf46594/projects/845/repo/SDK_2.9.1_EVK-MIMX8MM/devices/MIMX8MM6/drivers/fsl_uart.c.obj
 .rodata.__func__.24
                0x000000001ffe97b8       0x11 CMakeFiles/low_power_usecases.elf.dir/home/nxf46594/projects/845/repo/SDK_2.9.1_EVK-MIMX8MM/devices/MIMX8MM6/drivers/fsl_uart.c.obj
 *fill*         0x000000001ffe97c9        0x3 
 .rodata.__func__.21
                0x000000001ffe97cc        0xa CMakeFiles/low_power_usecases.elf.dir/home/nxf46594/projects/845/repo/SDK_2.9.1_EVK-MIMX8MM/devices/MIMX8MM6/drivers/fsl_uart.c.obj
 *fill*         0x000000001ffe97d6        0x2 
 .rodata.__func__.20
                0x000000001ffe97d8       0x18 CMakeFiles/low_power_usecases.elf.dir/home/nxf46594/projects/845/repo/SDK_2.9.1_EVK-MIMX8MM/devices/MIMX8MM6/drivers/fsl_uart.c.obj
 .rodata.__func__.19
                0x000000001ffe97f0       0x18 CMakeFiles/low_power_usecases.elf.dir/home/nxf46594/projects/845/repo/SDK_2.9.1_EVK-MIMX8MM/devices/MIMX8MM6/drivers/fsl_uart.c.obj
 .rodata.__func__.18
                0x000000001ffe9808       0x17 CMakeFiles/low_power_usecases.elf.dir/home/nxf46594/projects/845/repo/SDK_2.9.1_EVK-MIMX8MM/devices/MIMX8MM6/drivers/fsl_uart.c.obj
 *fill*         0x000000001ffe981f        0x1 
 .rodata.__func__.17
                0x000000001ffe9820       0x16 CMakeFiles/low_power_usecases.elf.dir/home/nxf46594/projects/845/repo/SDK_2.9.1_EVK-MIMX8MM/devices/MIMX8MM6/drivers/fsl_uart.c.obj
 *fill*         0x000000001ffe9836        0x2 
 .rodata.__func__.13
                0x000000001ffe9838       0x13 CMakeFiles/low_power_usecases.elf.dir/home/nxf46594/projects/845/repo/SDK_2.9.1_EVK-MIMX8MM/devices/MIMX8MM6/drivers/fsl_uart.c.obj
 *fill*         0x000000001ffe984b        0x1 
 .rodata.__func__.12
                0x000000001ffe984c       0x12 CMakeFiles/low_power_usecases.elf.dir/home/nxf46594/projects/845/repo/SDK_2.9.1_EVK-MIMX8MM/devices/MIMX8MM6/drivers/fsl_uart.c.obj
 *fill*         0x000000001ffe985e        0x2 
 .rodata.s_UartAdapterBase
                0x000000001ffe9860       0x14 CMakeFiles/low_power_usecases.elf.dir/home/nxf46594/projects/845/repo/SDK_2.9.1_EVK-MIMX8MM/components/uart/fsl_adapter_iuart.c.obj
 .rodata.__func__.5
                0x000000001ffe9874        0xd CMakeFiles/low_power_usecases.elf.dir/home/nxf46594/projects/845/repo/SDK_2.9.1_EVK-MIMX8MM/components/uart/fsl_adapter_iuart.c.obj
 *fill*         0x000000001ffe9881        0x3 
 .rodata.__func__.4
                0x000000001ffe9884        0xf CMakeFiles/low_power_usecases.elf.dir/home/nxf46594/projects/845/repo/SDK_2.9.1_EVK-MIMX8MM/components/uart/fsl_adapter_iuart.c.obj
 *fill*         0x000000001ffe9893        0x1 
 .rodata.__func__.3
                0x000000001ffe9894       0x18 CMakeFiles/low_power_usecases.elf.dir/home/nxf46594/projects/845/repo/SDK_2.9.1_EVK-MIMX8MM/components/uart/fsl_adapter_iuart.c.obj
 .rodata.__func__.2
                0x000000001ffe98ac       0x15 CMakeFiles/low_power_usecases.elf.dir/home/nxf46594/projects/845/repo/SDK_2.9.1_EVK-MIMX8MM/components/uart/fsl_adapter_iuart.c.obj
 *fill*         0x000000001ffe98c1        0x3 
 .rodata.__func__.3
                0x000000001ffe98c4        0x9 CMakeFiles/low_power_usecases.elf.dir/home/nxf46594/projects/845/repo/SDK_2.9.1_EVK-MIMX8MM/devices/MIMX8MM6/drivers/fsl_gpc.c.obj
 *fill*         0x000000001ffe98cd        0x3 
 .rodata.__func__.2
                0x000000001ffe98d0        0xe CMakeFiles/low_power_usecases.elf.dir/home/nxf46594/projects/845/repo/SDK_2.9.1_EVK-MIMX8MM/devices/MIMX8MM6/drivers/fsl_gpc.c.obj
 *fill*         0x000000001ffe98de        0x2 
 .rodata.s_gptBases
                0x000000001ffe98e0       0x1c CMakeFiles/low_power_usecases.elf.dir/home/nxf46594/projects/845/repo/SDK_2.9.1_EVK-MIMX8MM/devices/MIMX8MM6/drivers/fsl_gpt.c.obj
 .rodata.s_gptClocks
                0x000000001ffe98fc       0x1c CMakeFiles/low_power_usecases.elf.dir/home/nxf46594/projects/845/repo/SDK_2.9.1_EVK-MIMX8MM/devices/MIMX8MM6/drivers/fsl_gpt.c.obj
 .rodata.__func__.3
                0x000000001ffe9918       0x10 CMakeFiles/low_power_usecases.elf.dir/home/nxf46594/projects/845/repo/SDK_2.9.1_EVK-MIMX8MM/devices/MIMX8MM6/drivers/fsl_gpt.c.obj
 .rodata.__func__.2
                0x000000001ffe9928        0x9 CMakeFiles/low_power_usecases.elf.dir/home/nxf46594/projects/845/repo/SDK_2.9.1_EVK-MIMX8MM/devices/MIMX8MM6/drivers/fsl_gpt.c.obj
 *fill*         0x000000001ffe9931        0x3 
 .rodata.__func__.1
                0x000000001ffe9934       0x14 CMakeFiles/low_power_usecases.elf.dir/home/nxf46594/projects/845/repo/SDK_2.9.1_EVK-MIMX8MM/devices/MIMX8MM6/drivers/fsl_gpt.c.obj
 .rodata.__func__.0
                0x000000001ffe9948       0x15 CMakeFiles/low_power_usecases.elf.dir/home/nxf46594/projects/845/repo/SDK_2.9.1_EVK-MIMX8MM/devices/MIMX8MM6/drivers/fsl_gpt.c.obj
 *fill*         0x000000001ffe995d        0x3 
 .rodata.__func__.2
                0x000000001ffe9960        0xf CMakeFiles/low_power_usecases.elf.dir/home/nxf46594/projects/845/repo/SDK_2.9.1_EVK-MIMX8MM/devices/MIMX8MM6/drivers/fsl_mu.c.obj
 *fill*         0x000000001ffe996f        0x1 
 .rodata.__func__.1
                0x000000001ffe9970        0xb CMakeFiles/low_power_usecases.elf.dir/home/nxf46594/projects/845/repo/SDK_2.9.1_EVK-MIMX8MM/devices/MIMX8MM6/drivers/fsl_mu.c.obj
 *fill*         0x000000001ffe997b        0x1 
 .rodata.s_i2cDividerTable
                0x000000001ffe997c       0x80 CMakeFiles/low_power_usecases.elf.dir/home/nxf46594/projects/845/repo/SDK_2.9.1_EVK-MIMX8MM/devices/MIMX8MM6/drivers/fsl_i2c.c.obj
 .rodata.s_i2cBases
                0x000000001ffe99fc       0x14 CMakeFiles/low_power_usecases.elf.dir/home/nxf46594/projects/845/repo/SDK_2.9.1_EVK-MIMX8MM/devices/MIMX8MM6/drivers/fsl_i2c.c.obj
 .rodata.s_i2cIrqs
                0x000000001ffe9a10        0x5 CMakeFiles/low_power_usecases.elf.dir/home/nxf46594/projects/845/repo/SDK_2.9.1_EVK-MIMX8MM/devices/MIMX8MM6/drivers/fsl_i2c.c.obj
 *fill*         0x000000001ffe9a15        0x3 
 .rodata.s_i2cClocks
                0x000000001ffe9a18       0x14 CMakeFiles/low_power_usecases.elf.dir/home/nxf46594/projects/845/repo/SDK_2.9.1_EVK-MIMX8MM/devices/MIMX8MM6/drivers/fsl_i2c.c.obj
 .rodata.__func__.16
                0x000000001ffe9a2c       0x10 CMakeFiles/low_power_usecases.elf.dir/home/nxf46594/projects/845/repo/SDK_2.9.1_EVK-MIMX8MM/devices/MIMX8MM6/drivers/fsl_i2c.c.obj
 .rodata.__func__.15
                0x000000001ffe9a3c       0x22 CMakeFiles/low_power_usecases.elf.dir/home/nxf46594/projects/845/repo/SDK_2.9.1_EVK-MIMX8MM/devices/MIMX8MM6/drivers/fsl_i2c.c.obj
 *fill*         0x000000001ffe9a5e        0x2 
 .rodata.__func__.14
                0x000000001ffe9a60        0xf CMakeFiles/low_power_usecases.elf.dir/home/nxf46594/projects/845/repo/SDK_2.9.1_EVK-MIMX8MM/devices/MIMX8MM6/drivers/fsl_i2c.c.obj
 *fill*         0x000000001ffe9a6f        0x1 
 .rodata.__func__.13
                0x000000001ffe9a70       0x1b CMakeFiles/low_power_usecases.elf.dir/home/nxf46594/projects/845/repo/SDK_2.9.1_EVK-MIMX8MM/devices/MIMX8MM6/drivers/fsl_i2c.c.obj
 *fill*         0x000000001ffe9a8b        0x1 
 .rodata.__func__.11
                0x000000001ffe9a8c       0x1f CMakeFiles/low_power_usecases.elf.dir/home/nxf46594/projects/845/repo/SDK_2.9.1_EVK-MIMX8MM/devices/MIMX8MM6/drivers/fsl_i2c.c.obj
 *fill*         0x000000001ffe9aab        0x1 
 .rodata.__func__.10
                0x000000001ffe9aac       0x1e CMakeFiles/low_power_usecases.elf.dir/home/nxf46594/projects/845/repo/SDK_2.9.1_EVK-MIMX8MM/devices/MIMX8MM6/drivers/fsl_i2c.c.obj
 *fill*         0x000000001ffe9aca        0x2 
 .rodata.__func__.7
                0x000000001ffe9acc       0x1c CMakeFiles/low_power_usecases.elf.dir/home/nxf46594/projects/845/repo/SDK_2.9.1_EVK-MIMX8MM/devices/MIMX8MM6/drivers/fsl_i2c.c.obj
 .rodata._global_impure_ptr
                0x000000001ffe9ae8        0x4 /opt/gcc-arm-none-eabi-10-2020-q4-major/bin/../lib/gcc/arm-none-eabi/10.2.1/../../../../arm-none-eabi/lib/thumb/v7e-m+fp/hard/libc_nano.a(lib_a-impure.o)
                0x000000001ffe9ae8                _global_impure_ptr
 .rodata._svfprintf_r.str1.1
                0x000000001ffe9aec       0x11 /opt/gcc-arm-none-eabi-10-2020-q4-major/bin/../lib/gcc/arm-none-eabi/10.2.1/../../../../arm-none-eabi/lib/thumb/v7e-m+fp/hard/libc_nano.a(lib_a-nano-svfprintf.o)
 .rodata._printf_i.str1.1
                0x000000001ffe9afd       0x22 /opt/gcc-arm-none-eabi-10-2020-q4-major/bin/../lib/gcc/arm-none-eabi/10.2.1/../../../../arm-none-eabi/lib/thumb/v7e-m+fp/hard/libc_nano.a(lib_a-nano-vfprintf_i.o)
 *(.glue_7)
 .glue_7        0x000000001ffe9b1f        0x0 linker stubs
 *(.glue_7t)
 .glue_7t       0x000000001ffe9b1f        0x0 linker stubs
 *(.eh_frame)
 *fill*         0x000000001ffe9b1f        0x1 
 .eh_frame      0x000000001ffe9b20        0x0 /opt/gcc-arm-none-eabi-10-2020-q4-major/bin/../lib/gcc/arm-none-eabi/10.2.1/thumb/v7e-m+fp/hard/crtbegin.o
 *(.init)
 .init          0x000000001ffe9b20        0x4 /opt/gcc-arm-none-eabi-10-2020-q4-major/bin/../lib/gcc/arm-none-eabi/10.2.1/thumb/v7e-m+fp/hard/crti.o
                0x000000001ffe9b20                _init
 .init          0x000000001ffe9b24        0x8 /opt/gcc-arm-none-eabi-10-2020-q4-major/bin/../lib/gcc/arm-none-eabi/10.2.1/thumb/v7e-m+fp/hard/crtn.o
 *(.fini)
 .fini          0x000000001ffe9b2c        0x4 /opt/gcc-arm-none-eabi-10-2020-q4-major/bin/../lib/gcc/arm-none-eabi/10.2.1/thumb/v7e-m+fp/hard/crti.o
                0x000000001ffe9b2c                _fini
 .fini          0x000000001ffe9b30        0x8 /opt/gcc-arm-none-eabi-10-2020-q4-major/bin/../lib/gcc/arm-none-eabi/10.2.1/thumb/v7e-m+fp/hard/crtn.o
                0x000000001ffe9b38                . = ALIGN (0x4)

.vfp11_veneer   0x000000001ffe9b38        0x0
 .vfp11_veneer  0x000000001ffe9b38        0x0 linker stubs

.v4_bx          0x000000001ffe9b38        0x0
 .v4_bx         0x000000001ffe9b38        0x0 linker stubs

.iplt           0x000000001ffe9b38        0x0
 .iplt          0x000000001ffe9b38        0x0 /opt/gcc-arm-none-eabi-10-2020-q4-major/bin/../lib/gcc/arm-none-eabi/10.2.1/thumb/v7e-m+fp/hard/crtbegin.o

.ARM.extab
 *(.ARM.extab* .gnu.linkonce.armextab.*)

.ARM            0x000000001ffe9b38        0x8
                0x000000001ffe9b38                __exidx_start = .
 *(.ARM.exidx*)
 .ARM.exidx     0x000000001ffe9b38        0x8 /opt/gcc-arm-none-eabi-10-2020-q4-major/bin/../lib/gcc/arm-none-eabi/10.2.1/../../../../arm-none-eabi/lib/thumb/v7e-m+fp/hard/crt0.o
                                         0x10 (size before relaxing)
 .ARM.exidx     0x000000001ffe9b40        0x0 /opt/gcc-arm-none-eabi-10-2020-q4-major/bin/../lib/gcc/arm-none-eabi/10.2.1/thumb/v7e-m+fp/hard/libgcc.a(_udivmoddi4.o)
                                          0x8 (size before relaxing)
                0x000000001ffe9b40                __exidx_end = .

.rel.dyn        0x000000001ffe9b40        0x0
 .rel.iplt      0x000000001ffe9b40        0x0 /opt/gcc-arm-none-eabi-10-2020-q4-major/bin/../lib/gcc/arm-none-eabi/10.2.1/thumb/v7e-m+fp/hard/crtbegin.o

.ctors          0x000000001ffe9b40        0x0
                0x000000001ffe9b40                __CTOR_LIST__ = .
 *crtbegin.o(.ctors)
 *crtbegin?.o(.ctors)
 *(EXCLUDE_FILE(*crtend.o *crtend?.o) .ctors)
 *(SORT_BY_NAME(.ctors.*))
 *(.ctors)
                0x000000001ffe9b40                __CTOR_END__ = .

.dtors          0x000000001ffe9b40        0x0
                0x000000001ffe9b40                __DTOR_LIST__ = .
 *crtbegin.o(.dtors)
 *crtbegin?.o(.dtors)
 *(EXCLUDE_FILE(*crtend.o *crtend?.o) .dtors)
 *(SORT_BY_NAME(.dtors.*))
 *(.dtors)
                0x000000001ffe9b40                __DTOR_END__ = .

.preinit_array  0x000000001ffe9b40        0x0
                0x000000001ffe9b40                PROVIDE (__preinit_array_start = .)
 *(.preinit_array*)
                0x000000001ffe9b40                PROVIDE (__preinit_array_end = .)

.init_array     0x000000001ffe9b40        0x4
                0x000000001ffe9b40                PROVIDE (__init_array_start = .)
 *(SORT_BY_NAME(.init_array.*))
 *(.init_array*)
 .init_array    0x000000001ffe9b40        0x4 /opt/gcc-arm-none-eabi-10-2020-q4-major/bin/../lib/gcc/arm-none-eabi/10.2.1/thumb/v7e-m+fp/hard/crtbegin.o
                0x000000001ffe9b44                PROVIDE (__init_array_end = .)

.fini_array     0x000000001ffe9b44        0x4
                [!provide]                        PROVIDE (__fini_array_start = .)
 *(SORT_BY_NAME(.fini_array.*))
 *(.fini_array*)
 .fini_array    0x000000001ffe9b44        0x4 /opt/gcc-arm-none-eabi-10-2020-q4-major/bin/../lib/gcc/arm-none-eabi/10.2.1/thumb/v7e-m+fp/hard/crtbegin.o
                [!provide]                        PROVIDE (__fini_array_end = .)
                0x000000001ffe9b48                __etext = .
                0x000000001ffe9b48                __DATA_ROM = .

.data           0x0000000020000000       0x6c load address 0x000000001ffe9b48
                0x0000000020000000                . = ALIGN (0x4)
                0x0000000020000000                __DATA_RAM = .
                0x0000000020000000                __data_start__ = .
 *(.data)
 *(.data*)
 .data.uxCriticalNesting
                0x0000000020000000        0x4 CMakeFiles/low_power_usecases.elf.dir/home/nxf46594/projects/845/repo/SDK_2.9.1_EVK-MIMX8MM/rtos/freertos/freertos_kernel/portable/GCC/ARM_CM4F/port.c.obj
 .data.SystemCoreClock
                0x0000000020000004        0x4 CMakeFiles/low_power_usecases.elf.dir/home/nxf46594/projects/845/repo/SDK_2.9.1_EVK-MIMX8MM/devices/MIMX8MM6/system_MIMX8MM6_cm4.c.obj
                0x0000000020000004                SystemCoreClock
 .data._impure_ptr
                0x0000000020000008        0x4 /opt/gcc-arm-none-eabi-10-2020-q4-major/bin/../lib/gcc/arm-none-eabi/10.2.1/../../../../arm-none-eabi/lib/thumb/v7e-m+fp/hard/libc_nano.a(lib_a-impure.o)
                0x0000000020000008                _impure_ptr
 .data.impure_data
                0x000000002000000c       0x60 /opt/gcc-arm-none-eabi-10-2020-q4-major/bin/../lib/gcc/arm-none-eabi/10.2.1/../../../../arm-none-eabi/lib/thumb/v7e-m+fp/hard/libc_nano.a(lib_a-impure.o)
 *(.jcr*)
                0x000000002000006c                . = ALIGN (0x4)
                0x000000002000006c                __data_end__ = .
                0x000000001ffe0000                __CACHE_REGION_START = ORIGIN (m_interrupts)
                0x0000000000000000                __CACHE_REGION_SIZE = 0x0
                0x000000001ffe9bb4                __NDATA_ROM = (__DATA_ROM + SIZEOF (.data))

.igot.plt       0x000000002000006c        0x0 load address 0x000000001ffe9bb4
 .igot.plt      0x000000002000006c        0x0 /opt/gcc-arm-none-eabi-10-2020-q4-major/bin/../lib/gcc/arm-none-eabi/10.2.1/thumb/v7e-m+fp/hard/crtbegin.o

.ncache.init    0x0000000080000000        0x0 load address 0x000000001ffe9bb4
                0x0000000080000000                __noncachedata_start__ = .
 *(NonCacheable.init)
                0x0000000080000000                . = ALIGN (0x4)
                0x0000000080000000                __noncachedata_init_end__ = .
                0x0000000080000000                . = __noncachedata_init_end__

.ncache         0x0000000080000000        0x0
 *(NonCacheable)
                0x0000000080000000                . = ALIGN (0x4)
                0x0000000080000000                __noncachedata_end__ = .
                0x000000001ffe9bb4                __DATA_END = (__DATA_ROM + (__data_end__ - __data_start__))
                0x0000000020000000                text_end = (ORIGIN (m_text) + LENGTH (m_text))
                0x0000000000000001                ASSERT ((__DATA_END <= text_end), region m_text overflowed with text and data)

.bss            0x000000002000006c     0x2a80 load address 0x000000001ffe9bb4
                0x000000002000006c                . = ALIGN (0x4)
                0x000000002000006c                __START_BSS = .
                0x000000002000006c                __bss_start__ = .
 *(.bss)
 .bss           0x000000002000006c       0x1c /opt/gcc-arm-none-eabi-10-2020-q4-major/bin/../lib/gcc/arm-none-eabi/10.2.1/thumb/v7e-m+fp/hard/crtbegin.o
 *(.bss*)
 .bss.m4_lpm_state
                0x0000000020000088        0x1 CMakeFiles/low_power_usecases.elf.dir/home/nxf46594/projects/845/repo/SDK_2.9.1_EVK-MIMX8MM/boards/evkmimx8mm/rtos_examples/low_power_usecases/low_power_usecases.c.obj
 *fill*         0x0000000020000089        0x3 
 .bss.low_power_task_handle
                0x000000002000008c        0x4 CMakeFiles/low_power_usecases.elf.dir/home/nxf46594/projects/845/repo/SDK_2.9.1_EVK-MIMX8MM/boards/evkmimx8mm/rtos_examples/low_power_usecases/low_power_usecases.c.obj
                0x000000002000008c                low_power_task_handle
 .bss.I2C_task_handle
                0x0000000020000090        0x4 CMakeFiles/low_power_usecases.elf.dir/home/nxf46594/projects/845/repo/SDK_2.9.1_EVK-MIMX8MM/boards/evkmimx8mm/rtos_examples/low_power_usecases/low_power_usecases.c.obj
                0x0000000020000090                I2C_task_handle
 .bss.master_rtos_handle
                0x0000000020000094       0x38 CMakeFiles/low_power_usecases.elf.dir/home/nxf46594/projects/845/repo/SDK_2.9.1_EVK-MIMX8MM/boards/evkmimx8mm/rtos_examples/low_power_usecases/low_power_usecases.c.obj
 .bss.ucHeap    0x00000000200000cc     0x2800 CMakeFiles/low_power_usecases.elf.dir/home/nxf46594/projects/845/repo/SDK_2.9.1_EVK-MIMX8MM/rtos/freertos/freertos_kernel/portable/MemMang/heap_4.c.obj
 .bss.xStart    0x00000000200028cc        0x8 CMakeFiles/low_power_usecases.elf.dir/home/nxf46594/projects/845/repo/SDK_2.9.1_EVK-MIMX8MM/rtos/freertos/freertos_kernel/portable/MemMang/heap_4.c.obj
 .bss.pxEnd     0x00000000200028d4        0x4 CMakeFiles/low_power_usecases.elf.dir/home/nxf46594/projects/845/repo/SDK_2.9.1_EVK-MIMX8MM/rtos/freertos/freertos_kernel/portable/MemMang/heap_4.c.obj
 .bss.xFreeBytesRemaining
                0x00000000200028d8        0x4 CMakeFiles/low_power_usecases.elf.dir/home/nxf46594/projects/845/repo/SDK_2.9.1_EVK-MIMX8MM/rtos/freertos/freertos_kernel/portable/MemMang/heap_4.c.obj
 .bss.xMinimumEverFreeBytesRemaining
                0x00000000200028dc        0x4 CMakeFiles/low_power_usecases.elf.dir/home/nxf46594/projects/845/repo/SDK_2.9.1_EVK-MIMX8MM/rtos/freertos/freertos_kernel/portable/MemMang/heap_4.c.obj
 .bss.xNumberOfSuccessfulAllocations
                0x00000000200028e0        0x4 CMakeFiles/low_power_usecases.elf.dir/home/nxf46594/projects/845/repo/SDK_2.9.1_EVK-MIMX8MM/rtos/freertos/freertos_kernel/portable/MemMang/heap_4.c.obj
 .bss.xNumberOfSuccessfulFrees
                0x00000000200028e4        0x4 CMakeFiles/low_power_usecases.elf.dir/home/nxf46594/projects/845/repo/SDK_2.9.1_EVK-MIMX8MM/rtos/freertos/freertos_kernel/portable/MemMang/heap_4.c.obj
 .bss.xBlockAllocatedBit
                0x00000000200028e8        0x4 CMakeFiles/low_power_usecases.elf.dir/home/nxf46594/projects/845/repo/SDK_2.9.1_EVK-MIMX8MM/rtos/freertos/freertos_kernel/portable/MemMang/heap_4.c.obj
 .bss.ucMaxSysCallPriority
                0x00000000200028ec        0x1 CMakeFiles/low_power_usecases.elf.dir/home/nxf46594/projects/845/repo/SDK_2.9.1_EVK-MIMX8MM/rtos/freertos/freertos_kernel/portable/GCC/ARM_CM4F/port.c.obj
 *fill*         0x00000000200028ed        0x3 
 .bss.ulMaxPRIGROUPValue
                0x00000000200028f0        0x4 CMakeFiles/low_power_usecases.elf.dir/home/nxf46594/projects/845/repo/SDK_2.9.1_EVK-MIMX8MM/rtos/freertos/freertos_kernel/portable/GCC/ARM_CM4F/port.c.obj
 .bss.xQueueRegistry
                0x00000000200028f4       0x40 CMakeFiles/low_power_usecases.elf.dir/home/nxf46594/projects/845/repo/SDK_2.9.1_EVK-MIMX8MM/rtos/freertos/freertos_kernel/queue.c.obj
                0x00000000200028f4                xQueueRegistry
 .bss.pxCurrentTCB
                0x0000000020002934        0x4 CMakeFiles/low_power_usecases.elf.dir/home/nxf46594/projects/845/repo/SDK_2.9.1_EVK-MIMX8MM/rtos/freertos/freertos_kernel/tasks.c.obj
                0x0000000020002934                pxCurrentTCB
 .bss.pxReadyTasksLists
                0x0000000020002938       0x64 CMakeFiles/low_power_usecases.elf.dir/home/nxf46594/projects/845/repo/SDK_2.9.1_EVK-MIMX8MM/rtos/freertos/freertos_kernel/tasks.c.obj
 .bss.xDelayedTaskList1
                0x000000002000299c       0x14 CMakeFiles/low_power_usecases.elf.dir/home/nxf46594/projects/845/repo/SDK_2.9.1_EVK-MIMX8MM/rtos/freertos/freertos_kernel/tasks.c.obj
 .bss.xDelayedTaskList2
                0x00000000200029b0       0x14 CMakeFiles/low_power_usecases.elf.dir/home/nxf46594/projects/845/repo/SDK_2.9.1_EVK-MIMX8MM/rtos/freertos/freertos_kernel/tasks.c.obj
 .bss.pxDelayedTaskList
                0x00000000200029c4        0x4 CMakeFiles/low_power_usecases.elf.dir/home/nxf46594/projects/845/repo/SDK_2.9.1_EVK-MIMX8MM/rtos/freertos/freertos_kernel/tasks.c.obj
 .bss.pxOverflowDelayedTaskList
                0x00000000200029c8        0x4 CMakeFiles/low_power_usecases.elf.dir/home/nxf46594/projects/845/repo/SDK_2.9.1_EVK-MIMX8MM/rtos/freertos/freertos_kernel/tasks.c.obj
 .bss.xPendingReadyList
                0x00000000200029cc       0x14 CMakeFiles/low_power_usecases.elf.dir/home/nxf46594/projects/845/repo/SDK_2.9.1_EVK-MIMX8MM/rtos/freertos/freertos_kernel/tasks.c.obj
 .bss.xTasksWaitingTermination
                0x00000000200029e0       0x14 CMakeFiles/low_power_usecases.elf.dir/home/nxf46594/projects/845/repo/SDK_2.9.1_EVK-MIMX8MM/rtos/freertos/freertos_kernel/tasks.c.obj
 .bss.uxDeletedTasksWaitingCleanUp
                0x00000000200029f4        0x4 CMakeFiles/low_power_usecases.elf.dir/home/nxf46594/projects/845/repo/SDK_2.9.1_EVK-MIMX8MM/rtos/freertos/freertos_kernel/tasks.c.obj
 .bss.xSuspendedTaskList
                0x00000000200029f8       0x14 CMakeFiles/low_power_usecases.elf.dir/home/nxf46594/projects/845/repo/SDK_2.9.1_EVK-MIMX8MM/rtos/freertos/freertos_kernel/tasks.c.obj
 .bss.uxCurrentNumberOfTasks
                0x0000000020002a0c        0x4 CMakeFiles/low_power_usecases.elf.dir/home/nxf46594/projects/845/repo/SDK_2.9.1_EVK-MIMX8MM/rtos/freertos/freertos_kernel/tasks.c.obj
 .bss.xTickCount
                0x0000000020002a10        0x4 CMakeFiles/low_power_usecases.elf.dir/home/nxf46594/projects/845/repo/SDK_2.9.1_EVK-MIMX8MM/rtos/freertos/freertos_kernel/tasks.c.obj
 .bss.uxTopReadyPriority
                0x0000000020002a14        0x4 CMakeFiles/low_power_usecases.elf.dir/home/nxf46594/projects/845/repo/SDK_2.9.1_EVK-MIMX8MM/rtos/freertos/freertos_kernel/tasks.c.obj
 .bss.xSchedulerRunning
                0x0000000020002a18        0x4 CMakeFiles/low_power_usecases.elf.dir/home/nxf46594/projects/845/repo/SDK_2.9.1_EVK-MIMX8MM/rtos/freertos/freertos_kernel/tasks.c.obj
 .bss.xPendedTicks
                0x0000000020002a1c        0x4 CMakeFiles/low_power_usecases.elf.dir/home/nxf46594/projects/845/repo/SDK_2.9.1_EVK-MIMX8MM/rtos/freertos/freertos_kernel/tasks.c.obj
 .bss.xYieldPending
                0x0000000020002a20        0x4 CMakeFiles/low_power_usecases.elf.dir/home/nxf46594/projects/845/repo/SDK_2.9.1_EVK-MIMX8MM/rtos/freertos/freertos_kernel/tasks.c.obj
 .bss.xNumOfOverflows
                0x0000000020002a24        0x4 CMakeFiles/low_power_usecases.elf.dir/home/nxf46594/projects/845/repo/SDK_2.9.1_EVK-MIMX8MM/rtos/freertos/freertos_kernel/tasks.c.obj
 .bss.uxTaskNumber
                0x0000000020002a28        0x4 CMakeFiles/low_power_usecases.elf.dir/home/nxf46594/projects/845/repo/SDK_2.9.1_EVK-MIMX8MM/rtos/freertos/freertos_kernel/tasks.c.obj
 .bss.xNextTaskUnblockTime
                0x0000000020002a2c        0x4 CMakeFiles/low_power_usecases.elf.dir/home/nxf46594/projects/845/repo/SDK_2.9.1_EVK-MIMX8MM/rtos/freertos/freertos_kernel/tasks.c.obj
 .bss.xIdleTaskHandle
                0x0000000020002a30        0x4 CMakeFiles/low_power_usecases.elf.dir/home/nxf46594/projects/845/repo/SDK_2.9.1_EVK-MIMX8MM/rtos/freertos/freertos_kernel/tasks.c.obj
 .bss.uxSchedulerSuspended
                0x0000000020002a34        0x4 CMakeFiles/low_power_usecases.elf.dir/home/nxf46594/projects/845/repo/SDK_2.9.1_EVK-MIMX8MM/rtos/freertos/freertos_kernel/tasks.c.obj
 .bss.ulTaskSwitchedInTime
                0x0000000020002a38        0x4 CMakeFiles/low_power_usecases.elf.dir/home/nxf46594/projects/845/repo/SDK_2.9.1_EVK-MIMX8MM/rtos/freertos/freertos_kernel/tasks.c.obj
 .bss.ulTotalRunTime
                0x0000000020002a3c        0x4 CMakeFiles/low_power_usecases.elf.dir/home/nxf46594/projects/845/repo/SDK_2.9.1_EVK-MIMX8MM/rtos/freertos/freertos_kernel/tasks.c.obj
 .bss.xActiveTimerList1
                0x0000000020002a40       0x14 CMakeFiles/low_power_usecases.elf.dir/home/nxf46594/projects/845/repo/SDK_2.9.1_EVK-MIMX8MM/rtos/freertos/freertos_kernel/timers.c.obj
 .bss.xActiveTimerList2
                0x0000000020002a54       0x14 CMakeFiles/low_power_usecases.elf.dir/home/nxf46594/projects/845/repo/SDK_2.9.1_EVK-MIMX8MM/rtos/freertos/freertos_kernel/timers.c.obj
 .bss.pxCurrentTimerList
                0x0000000020002a68        0x4 CMakeFiles/low_power_usecases.elf.dir/home/nxf46594/projects/845/repo/SDK_2.9.1_EVK-MIMX8MM/rtos/freertos/freertos_kernel/timers.c.obj
 .bss.pxOverflowTimerList
                0x0000000020002a6c        0x4 CMakeFiles/low_power_usecases.elf.dir/home/nxf46594/projects/845/repo/SDK_2.9.1_EVK-MIMX8MM/rtos/freertos/freertos_kernel/timers.c.obj
 .bss.xTimerQueue
                0x0000000020002a70        0x4 CMakeFiles/low_power_usecases.elf.dir/home/nxf46594/projects/845/repo/SDK_2.9.1_EVK-MIMX8MM/rtos/freertos/freertos_kernel/timers.c.obj
 .bss.xTimerTaskHandle
                0x0000000020002a74        0x4 CMakeFiles/low_power_usecases.elf.dir/home/nxf46594/projects/845/repo/SDK_2.9.1_EVK-MIMX8MM/rtos/freertos/freertos_kernel/timers.c.obj
 .bss.xLastTime.0
                0x0000000020002a78        0x4 CMakeFiles/low_power_usecases.elf.dir/home/nxf46594/projects/845/repo/SDK_2.9.1_EVK-MIMX8MM/rtos/freertos/freertos_kernel/timers.c.obj
 .bss.s_debugConsoleReadWaitSemaphore
                0x0000000020002a7c        0x1 CMakeFiles/low_power_usecases.elf.dir/home/nxf46594/projects/845/repo/SDK_2.9.1_EVK-MIMX8MM/devices/MIMX8MM6/utilities/debug_console/fsl_debug_console.c.obj
 *fill*         0x0000000020002a7d        0x3 
 .bss.s_debugConsoleState
                0x0000000020002a80       0x20 CMakeFiles/low_power_usecases.elf.dir/home/nxf46594/projects/845/repo/SDK_2.9.1_EVK-MIMX8MM/devices/MIMX8MM6/utilities/debug_console/fsl_debug_console.c.obj
 .bss.g_serialHandle
                0x0000000020002aa0        0x4 CMakeFiles/low_power_usecases.elf.dir/home/nxf46594/projects/845/repo/SDK_2.9.1_EVK-MIMX8MM/devices/MIMX8MM6/utilities/debug_console/fsl_debug_console.c.obj
                0x0000000020002aa0                g_serialHandle
 .bss.s_uartIsr
                0x0000000020002aa4        0x4 CMakeFiles/low_power_usecases.elf.dir/home/nxf46594/projects/845/repo/SDK_2.9.1_EVK-MIMX8MM/devices/MIMX8MM6/drivers/fsl_uart.c.obj
 .bss.s_uartHandle
                0x0000000020002aa8       0x14 CMakeFiles/low_power_usecases.elf.dir/home/nxf46594/projects/845/repo/SDK_2.9.1_EVK-MIMX8MM/devices/MIMX8MM6/drivers/fsl_uart.c.obj
 .bss.heap_end.0
                0x0000000020002abc        0x4 CMakeFiles/low_power_usecases.elf.dir/home/nxf46594/projects/845/repo/SDK_2.9.1_EVK-MIMX8MM/devices/MIMX8MM6/utilities/fsl_sbrk.c.obj
 .bss.s_i2cHandle
                0x0000000020002ac0       0x14 CMakeFiles/low_power_usecases.elf.dir/home/nxf46594/projects/845/repo/SDK_2.9.1_EVK-MIMX8MM/devices/MIMX8MM6/drivers/fsl_i2c.c.obj
 .bss.s_i2cMasterIsr
                0x0000000020002ad4        0x4 CMakeFiles/low_power_usecases.elf.dir/home/nxf46594/projects/845/repo/SDK_2.9.1_EVK-MIMX8MM/devices/MIMX8MM6/drivers/fsl_i2c.c.obj
 .bss.s_i2cSlaveIsr
                0x0000000020002ad8        0x4 CMakeFiles/low_power_usecases.elf.dir/home/nxf46594/projects/845/repo/SDK_2.9.1_EVK-MIMX8MM/devices/MIMX8MM6/drivers/fsl_i2c.c.obj
 .bss.__malloc_free_list
                0x0000000020002adc        0x4 /opt/gcc-arm-none-eabi-10-2020-q4-major/bin/../lib/gcc/arm-none-eabi/10.2.1/../../../../arm-none-eabi/lib/thumb/v7e-m+fp/hard/libc_nano.a(lib_a-nano-mallocr.o)
                0x0000000020002adc                __malloc_free_list
 .bss.__malloc_sbrk_start
                0x0000000020002ae0        0x4 /opt/gcc-arm-none-eabi-10-2020-q4-major/bin/../lib/gcc/arm-none-eabi/10.2.1/../../../../arm-none-eabi/lib/thumb/v7e-m+fp/hard/libc_nano.a(lib_a-nano-mallocr.o)
                0x0000000020002ae0                __malloc_sbrk_start
 .bss.errno     0x0000000020002ae4        0x4 /opt/gcc-arm-none-eabi-10-2020-q4-major/bin/../lib/gcc/arm-none-eabi/10.2.1/../../../../arm-none-eabi/lib/thumb/v7e-m+fp/hard/libc_nano.a(lib_a-reent.o)
                0x0000000020002ae4                errno
 .bss.__lock___malloc_recursive_mutex
                0x0000000020002ae8        0x1 /opt/gcc-arm-none-eabi-10-2020-q4-major/bin/../lib/gcc/arm-none-eabi/10.2.1/../../../../arm-none-eabi/lib/thumb/v7e-m+fp/hard/libc_nano.a(lib_a-lock.o)
                0x0000000020002ae8                __lock___malloc_recursive_mutex
 *(COMMON)
                0x0000000020002aec                . = ALIGN (0x4)
 *fill*         0x0000000020002ae9        0x3 
                0x0000000020002aec                __bss_end__ = .
                0x0000000020002aec                __END_BSS = .

.heap           0x0000000020002aec      0x404 load address 0x000000001ffec634
                0x0000000020002af0                . = ALIGN (0x8)
 *fill*         0x0000000020002aec        0x4 
                0x0000000020002af0                __end__ = .
                0x0000000020002af0                PROVIDE (end = .)
                0x0000000020002af0                __HeapBase = .
                0x0000000020002ef0                . = (. + HEAP_SIZE)
 *fill*         0x0000000020002af0      0x400 
                0x0000000020002ef0                __HeapLimit = .
                0x0000000020002ef0                __heap_limit = .

.stack          0x0000000020002ef0      0x400 load address 0x000000001ffeca38
                0x0000000020002ef0                . = ALIGN (0x8)
                0x00000000200032f0                . = (. + STACK_SIZE)
 *fill*         0x0000000020002ef0      0x400 
                0x0000000020020000                __StackTop = (ORIGIN (m_data) + LENGTH (m_data))
                0x000000002001fc00                __StackLimit = (__StackTop - STACK_SIZE)
                0x0000000020020000                PROVIDE (__stack = __StackTop)

.ARM.attributes
                0x0000000000000000       0x30
 *(.ARM.attributes)
 .ARM.attributes
                0x0000000000000000       0x1e /opt/gcc-arm-none-eabi-10-2020-q4-major/bin/../lib/gcc/arm-none-eabi/10.2.1/thumb/v7e-m+fp/hard/crti.o
 .ARM.attributes
                0x000000000000001e       0x34 /opt/gcc-arm-none-eabi-10-2020-q4-major/bin/../lib/gcc/arm-none-eabi/10.2.1/thumb/v7e-m+fp/hard/crtbegin.o
 .ARM.attributes
                0x0000000000000052       0x1c /opt/gcc-arm-none-eabi-10-2020-q4-major/bin/../lib/gcc/arm-none-eabi/10.2.1/../../../../arm-none-eabi/lib/thumb/v7e-m+fp/hard/crt0.o
 .ARM.attributes
                0x000000000000006e       0x34 CMakeFiles/low_power_usecases.elf.dir/home/nxf46594/projects/845/repo/SDK_2.9.1_EVK-MIMX8MM/boards/evkmimx8mm/rtos_examples/low_power_usecases/low_power_usecases.c.obj
 .ARM.attributes
                0x00000000000000a2       0x34 CMakeFiles/low_power_usecases.elf.dir/home/nxf46594/projects/845/repo/SDK_2.9.1_EVK-MIMX8MM/boards/evkmimx8mm/rtos_examples/low_power_usecases/pin_mux.c.obj
 .ARM.attributes
                0x00000000000000d6       0x34 CMakeFiles/low_power_usecases.elf.dir/home/nxf46594/projects/845/repo/SDK_2.9.1_EVK-MIMX8MM/boards/evkmimx8mm/rtos_examples/low_power_usecases/board.c.obj
 .ARM.attributes
                0x000000000000010a       0x34 CMakeFiles/low_power_usecases.elf.dir/home/nxf46594/projects/845/repo/SDK_2.9.1_EVK-MIMX8MM/boards/evkmimx8mm/rtos_examples/low_power_usecases/clock_config.c.obj
 .ARM.attributes
                0x000000000000013e       0x39 CMakeFiles/low_power_usecases.elf.dir/home/nxf46594/projects/845/repo/SDK_2.9.1_EVK-MIMX8MM/boards/evkmimx8mm/rtos_examples/low_power_usecases/empty_rsc_table.c.obj
 .ARM.attributes
                0x0000000000000177       0x34 CMakeFiles/low_power_usecases.elf.dir/home/nxf46594/projects/845/repo/SDK_2.9.1_EVK-MIMX8MM/devices/MIMX8MM6/drivers/fsl_clock.c.obj
 .ARM.attributes
                0x00000000000001ab       0x34 CMakeFiles/low_power_usecases.elf.dir/home/nxf46594/projects/845/repo/SDK_2.9.1_EVK-MIMX8MM/rtos/freertos/freertos_kernel/portable/MemMang/heap_4.c.obj
 .ARM.attributes
                0x00000000000001df       0x34 CMakeFiles/low_power_usecases.elf.dir/home/nxf46594/projects/845/repo/SDK_2.9.1_EVK-MIMX8MM/rtos/freertos/freertos_kernel/list.c.obj
 .ARM.attributes
                0x0000000000000213       0x34 CMakeFiles/low_power_usecases.elf.dir/home/nxf46594/projects/845/repo/SDK_2.9.1_EVK-MIMX8MM/rtos/freertos/freertos_kernel/portable/GCC/ARM_CM4F/port.c.obj
 .ARM.attributes
                0x0000000000000247       0x34 CMakeFiles/low_power_usecases.elf.dir/home/nxf46594/projects/845/repo/SDK_2.9.1_EVK-MIMX8MM/rtos/freertos/freertos_kernel/queue.c.obj
 .ARM.attributes
                0x000000000000027b       0x34 CMakeFiles/low_power_usecases.elf.dir/home/nxf46594/projects/845/repo/SDK_2.9.1_EVK-MIMX8MM/rtos/freertos/freertos_kernel/tasks.c.obj
 .ARM.attributes
                0x00000000000002af       0x34 CMakeFiles/low_power_usecases.elf.dir/home/nxf46594/projects/845/repo/SDK_2.9.1_EVK-MIMX8MM/rtos/freertos/freertos_kernel/timers.c.obj
 .ARM.attributes
                0x00000000000002e3       0x34 CMakeFiles/low_power_usecases.elf.dir/home/nxf46594/projects/845/repo/SDK_2.9.1_EVK-MIMX8MM/devices/MIMX8MM6/drivers/fsl_rdc.c.obj
 .ARM.attributes
                0x0000000000000317       0x34 CMakeFiles/low_power_usecases.elf.dir/home/nxf46594/projects/845/repo/SDK_2.9.1_EVK-MIMX8MM/devices/MIMX8MM6/utilities/str/fsl_str.c.obj
 .ARM.attributes
                0x000000000000034b       0x34 CMakeFiles/low_power_usecases.elf.dir/home/nxf46594/projects/845/repo/SDK_2.9.1_EVK-MIMX8MM/devices/MIMX8MM6/utilities/debug_console/fsl_debug_console.c.obj
 .ARM.attributes
                0x000000000000037f       0x34 CMakeFiles/low_power_usecases.elf.dir/home/nxf46594/projects/845/repo/SDK_2.9.1_EVK-MIMX8MM/components/serial_manager/fsl_component_serial_manager.c.obj
 .ARM.attributes
                0x00000000000003b3       0x34 CMakeFiles/low_power_usecases.elf.dir/home/nxf46594/projects/845/repo/SDK_2.9.1_EVK-MIMX8MM/components/serial_manager/fsl_component_serial_port_uart.c.obj
 .ARM.attributes
                0x00000000000003e7       0x34 CMakeFiles/low_power_usecases.elf.dir/home/nxf46594/projects/845/repo/SDK_2.9.1_EVK-MIMX8MM/devices/MIMX8MM6/drivers/fsl_uart.c.obj
 .ARM.attributes
                0x000000000000041b       0x34 CMakeFiles/low_power_usecases.elf.dir/home/nxf46594/projects/845/repo/SDK_2.9.1_EVK-MIMX8MM/components/uart/fsl_adapter_iuart.c.obj
 .ARM.attributes
                0x000000000000044f       0x1f CMakeFiles/low_power_usecases.elf.dir/home/nxf46594/projects/845/repo/SDK_2.9.1_EVK-MIMX8MM/devices/MIMX8MM6/gcc/startup_MIMX8MM6_cm4.S.obj
 .ARM.attributes
                0x000000000000046e       0x34 CMakeFiles/low_power_usecases.elf.dir/home/nxf46594/projects/845/repo/SDK_2.9.1_EVK-MIMX8MM/devices/MIMX8MM6/system_MIMX8MM6_cm4.c.obj
 .ARM.attributes
                0x00000000000004a2       0x34 CMakeFiles/low_power_usecases.elf.dir/home/nxf46594/projects/845/repo/SDK_2.9.1_EVK-MIMX8MM/devices/MIMX8MM6/utilities/fsl_assert.c.obj
 .ARM.attributes
                0x00000000000004d6       0x34 CMakeFiles/low_power_usecases.elf.dir/home/nxf46594/projects/845/repo/SDK_2.9.1_EVK-MIMX8MM/devices/MIMX8MM6/utilities/fsl_sbrk.c.obj
 .ARM.attributes
                0x000000000000050a       0x34 CMakeFiles/low_power_usecases.elf.dir/home/nxf46594/projects/845/repo/SDK_2.9.1_EVK-MIMX8MM/devices/MIMX8MM6/drivers/fsl_gpc.c.obj
 .ARM.attributes
                0x000000000000053e       0x34 CMakeFiles/low_power_usecases.elf.dir/home/nxf46594/projects/845/repo/SDK_2.9.1_EVK-MIMX8MM/devices/MIMX8MM6/drivers/fsl_gpt.c.obj
 .ARM.attributes
                0x0000000000000572       0x34 CMakeFiles/low_power_usecases.elf.dir/home/nxf46594/projects/845/repo/SDK_2.9.1_EVK-MIMX8MM/devices/MIMX8MM6/drivers/fsl_mu.c.obj
 .ARM.attributes
                0x00000000000005a6       0x34 CMakeFiles/low_power_usecases.elf.dir/home/nxf46594/projects/845/repo/SDK_2.9.1_EVK-MIMX8MM/devices/MIMX8MM6/drivers/fsl_i2c.c.obj
 .ARM.attributes
                0x00000000000005da       0x34 CMakeFiles/low_power_usecases.elf.dir/home/nxf46594/projects/845/repo/SDK_2.9.1_EVK-MIMX8MM/devices/MIMX8MM6/drivers/fsl_i2c_freertos.c.obj
 .ARM.attributes
                0x000000000000060e       0x34 /opt/gcc-arm-none-eabi-10-2020-q4-major/bin/../lib/gcc/arm-none-eabi/10.2.1/../../../../arm-none-eabi/lib/thumb/v7e-m+fp/hard/libc_nano.a(lib_a-errno.o)
 .ARM.attributes
                0x0000000000000642       0x34 /opt/gcc-arm-none-eabi-10-2020-q4-major/bin/../lib/gcc/arm-none-eabi/10.2.1/../../../../arm-none-eabi/lib/thumb/v7e-m+fp/hard/libc_nano.a(lib_a-exit.o)
 .ARM.attributes
                0x0000000000000676       0x32 /opt/gcc-arm-none-eabi-10-2020-q4-major/bin/../lib/gcc/arm-none-eabi/10.2.1/../../../../arm-none-eabi/lib/thumb/v7e-m+fp/hard/libc_nano.a(lib_a-impure.o)
 .ARM.attributes
                0x00000000000006a8       0x34 /opt/gcc-arm-none-eabi-10-2020-q4-major/bin/../lib/gcc/arm-none-eabi/10.2.1/../../../../arm-none-eabi/lib/thumb/v7e-m+fp/hard/libc_nano.a(lib_a-init.o)
 .ARM.attributes
                0x00000000000006dc       0x34 /opt/gcc-arm-none-eabi-10-2020-q4-major/bin/../lib/gcc/arm-none-eabi/10.2.1/../../../../arm-none-eabi/lib/thumb/v7e-m+fp/hard/libc_nano.a(lib_a-memcpy-stub.o)
 .ARM.attributes
                0x0000000000000710       0x34 /opt/gcc-arm-none-eabi-10-2020-q4-major/bin/../lib/gcc/arm-none-eabi/10.2.1/../../../../arm-none-eabi/lib/thumb/v7e-m+fp/hard/libc_nano.a(lib_a-memset.o)
 .ARM.attributes
                0x0000000000000744       0x34 /opt/gcc-arm-none-eabi-10-2020-q4-major/bin/../lib/gcc/arm-none-eabi/10.2.1/../../../../arm-none-eabi/lib/thumb/v7e-m+fp/hard/libc_nano.a(lib_a-nano-freer.o)
 .ARM.attributes
                0x0000000000000778       0x34 /opt/gcc-arm-none-eabi-10-2020-q4-major/bin/../lib/gcc/arm-none-eabi/10.2.1/../../../../arm-none-eabi/lib/thumb/v7e-m+fp/hard/libc_nano.a(lib_a-nano-mallocr.o)
 .ARM.attributes
                0x00000000000007ac       0x34 /opt/gcc-arm-none-eabi-10-2020-q4-major/bin/../lib/gcc/arm-none-eabi/10.2.1/../../../../arm-none-eabi/lib/thumb/v7e-m+fp/hard/libc_nano.a(lib_a-sbrkr.o)
 .ARM.attributes
                0x00000000000007e0       0x34 /opt/gcc-arm-none-eabi-10-2020-q4-major/bin/../lib/gcc/arm-none-eabi/10.2.1/../../../../arm-none-eabi/lib/thumb/v7e-m+fp/hard/libc_nano.a(lib_a-sprintf.o)
 .ARM.attributes
                0x0000000000000814       0x34 /opt/gcc-arm-none-eabi-10-2020-q4-major/bin/../lib/gcc/arm-none-eabi/10.2.1/../../../../arm-none-eabi/lib/thumb/v7e-m+fp/hard/libc_nano.a(lib_a-strcpy.o)
 .ARM.attributes
                0x0000000000000848       0x17 /opt/gcc-arm-none-eabi-10-2020-q4-major/bin/../lib/gcc/arm-none-eabi/10.2.1/../../../../arm-none-eabi/lib/thumb/v7e-m+fp/hard/libc_nano.a(lib_a-strlen.o)
 .ARM.attributes
                0x000000000000085f       0x34 /opt/gcc-arm-none-eabi-10-2020-q4-major/bin/../lib/gcc/arm-none-eabi/10.2.1/../../../../arm-none-eabi/lib/thumb/v7e-m+fp/hard/libc_nano.a(lib_a-mlock.o)
 .ARM.attributes
                0x0000000000000893       0x34 /opt/gcc-arm-none-eabi-10-2020-q4-major/bin/../lib/gcc/arm-none-eabi/10.2.1/../../../../arm-none-eabi/lib/thumb/v7e-m+fp/hard/libc_nano.a(lib_a-nano-svfprintf.o)
 .ARM.attributes
                0x00000000000008c7       0x34 /opt/gcc-arm-none-eabi-10-2020-q4-major/bin/../lib/gcc/arm-none-eabi/10.2.1/../../../../arm-none-eabi/lib/thumb/v7e-m+fp/hard/libc_nano.a(lib_a-nano-vfprintf_i.o)
 .ARM.attributes
                0x00000000000008fb       0x34 /opt/gcc-arm-none-eabi-10-2020-q4-major/bin/../lib/gcc/arm-none-eabi/10.2.1/../../../../arm-none-eabi/lib/thumb/v7e-m+fp/hard/libc_nano.a(lib_a-reent.o)
 .ARM.attributes
                0x000000000000092f       0x34 /opt/gcc-arm-none-eabi-10-2020-q4-major/bin/../lib/gcc/arm-none-eabi/10.2.1/../../../../arm-none-eabi/lib/thumb/v7e-m+fp/hard/libc_nano.a(lib_a-lock.o)
 .ARM.attributes
                0x0000000000000963       0x1c /opt/gcc-arm-none-eabi-10-2020-q4-major/bin/../lib/gcc/arm-none-eabi/10.2.1/../../../../arm-none-eabi/lib/thumb/v7e-m+fp/hard/libc_nano.a(lib_a-memchr.o)
 .ARM.attributes
                0x000000000000097f       0x34 /opt/gcc-arm-none-eabi-10-2020-q4-major/bin/../lib/gcc/arm-none-eabi/10.2.1/../../../../arm-none-eabi/lib/thumb/v7e-m+fp/hard/libc_nano.a(lib_a-memmove.o)
 .ARM.attributes
                0x00000000000009b3       0x34 /opt/gcc-arm-none-eabi-10-2020-q4-major/bin/../lib/gcc/arm-none-eabi/10.2.1/../../../../arm-none-eabi/lib/thumb/v7e-m+fp/hard/libc_nano.a(lib_a-nano-reallocr.o)
 .ARM.attributes
                0x00000000000009e7       0x34 /opt/gcc-arm-none-eabi-10-2020-q4-major/bin/../lib/gcc/arm-none-eabi/10.2.1/../../../../arm-none-eabi/lib/thumb/v7e-m+fp/hard/libc_nano.a(lib_a-nano-msizer.o)
 .ARM.attributes
                0x0000000000000a1b       0x1e /opt/gcc-arm-none-eabi-10-2020-q4-major/bin/../lib/gcc/arm-none-eabi/10.2.1/thumb/v7e-m+fp/hard/libgcc.a(_aeabi_uldivmod.o)
 .ARM.attributes
                0x0000000000000a39       0x34 /opt/gcc-arm-none-eabi-10-2020-q4-major/bin/../lib/gcc/arm-none-eabi/10.2.1/thumb/v7e-m+fp/hard/libgcc.a(_udivmoddi4.o)
 .ARM.attributes
                0x0000000000000a6d       0x1e /opt/gcc-arm-none-eabi-10-2020-q4-major/bin/../lib/gcc/arm-none-eabi/10.2.1/thumb/v7e-m+fp/hard/libgcc.a(_dvmd_tls.o)
 .ARM.attributes
                0x0000000000000a8b       0x34 /opt/gcc-arm-none-eabi-10-2020-q4-major/bin/../lib/gcc/arm-none-eabi/10.2.1/../../../../arm-none-eabi/lib/thumb/v7e-m+fp/hard/libnosys.a(_exit.o)
 .ARM.attributes
                0x0000000000000abf       0x1e /opt/gcc-arm-none-eabi-10-2020-q4-major/bin/../lib/gcc/arm-none-eabi/10.2.1/thumb/v7e-m+fp/hard/crtn.o
                0x0000000000000001                ASSERT ((__StackLimit >= __HeapLimit), region m_data overflowed with stack and heap)
OUTPUT(debug/low_power_usecases.elf elf32-littlearm)
LOAD linker stubs

.debug_info     0x0000000000000000    0x16fea
 .debug_info    0x0000000000000000     0x24ef CMakeFiles/low_power_usecases.elf.dir/home/nxf46594/projects/845/repo/SDK_2.9.1_EVK-MIMX8MM/boards/evkmimx8mm/rtos_examples/low_power_usecases/low_power_usecases.c.obj
 .debug_info    0x00000000000024ef      0x18f CMakeFiles/low_power_usecases.elf.dir/home/nxf46594/projects/845/repo/SDK_2.9.1_EVK-MIMX8MM/boards/evkmimx8mm/rtos_examples/low_power_usecases/pin_mux.c.obj
 .debug_info    0x000000000000267e      0xab5 CMakeFiles/low_power_usecases.elf.dir/home/nxf46594/projects/845/repo/SDK_2.9.1_EVK-MIMX8MM/boards/evkmimx8mm/rtos_examples/low_power_usecases/board.c.obj
 .debug_info    0x0000000000003133      0xc84 CMakeFiles/low_power_usecases.elf.dir/home/nxf46594/projects/845/repo/SDK_2.9.1_EVK-MIMX8MM/boards/evkmimx8mm/rtos_examples/low_power_usecases/clock_config.c.obj
 .debug_info    0x0000000000003db7       0x9c CMakeFiles/low_power_usecases.elf.dir/home/nxf46594/projects/845/repo/SDK_2.9.1_EVK-MIMX8MM/boards/evkmimx8mm/rtos_examples/low_power_usecases/empty_rsc_table.c.obj
 .debug_info    0x0000000000003e53     0x184a CMakeFiles/low_power_usecases.elf.dir/home/nxf46594/projects/845/repo/SDK_2.9.1_EVK-MIMX8MM/devices/MIMX8MM6/drivers/fsl_clock.c.obj
 .debug_info    0x000000000000569d      0x4b6 CMakeFiles/low_power_usecases.elf.dir/home/nxf46594/projects/845/repo/SDK_2.9.1_EVK-MIMX8MM/rtos/freertos/freertos_kernel/portable/MemMang/heap_4.c.obj
 .debug_info    0x0000000000005b53      0x2ba CMakeFiles/low_power_usecases.elf.dir/home/nxf46594/projects/845/repo/SDK_2.9.1_EVK-MIMX8MM/rtos/freertos/freertos_kernel/list.c.obj
 .debug_info    0x0000000000005e0d      0x4ce CMakeFiles/low_power_usecases.elf.dir/home/nxf46594/projects/845/repo/SDK_2.9.1_EVK-MIMX8MM/rtos/freertos/freertos_kernel/portable/GCC/ARM_CM4F/port.c.obj
 .debug_info    0x00000000000062db     0x168c CMakeFiles/low_power_usecases.elf.dir/home/nxf46594/projects/845/repo/SDK_2.9.1_EVK-MIMX8MM/rtos/freertos/freertos_kernel/queue.c.obj
 .debug_info    0x0000000000007967     0x2795 CMakeFiles/low_power_usecases.elf.dir/home/nxf46594/projects/845/repo/SDK_2.9.1_EVK-MIMX8MM/rtos/freertos/freertos_kernel/tasks.c.obj
 .debug_info    0x000000000000a0fc      0xe67 CMakeFiles/low_power_usecases.elf.dir/home/nxf46594/projects/845/repo/SDK_2.9.1_EVK-MIMX8MM/rtos/freertos/freertos_kernel/timers.c.obj
 .debug_info    0x000000000000af63     0x14fc CMakeFiles/low_power_usecases.elf.dir/home/nxf46594/projects/845/repo/SDK_2.9.1_EVK-MIMX8MM/devices/MIMX8MM6/drivers/fsl_rdc.c.obj
 .debug_info    0x000000000000c45f      0xac3 CMakeFiles/low_power_usecases.elf.dir/home/nxf46594/projects/845/repo/SDK_2.9.1_EVK-MIMX8MM/devices/MIMX8MM6/utilities/str/fsl_str.c.obj
 .debug_info    0x000000000000cf22      0xe1f CMakeFiles/low_power_usecases.elf.dir/home/nxf46594/projects/845/repo/SDK_2.9.1_EVK-MIMX8MM/devices/MIMX8MM6/utilities/debug_console/fsl_debug_console.c.obj
 .debug_info    0x000000000000dd41      0x8e4 CMakeFiles/low_power_usecases.elf.dir/home/nxf46594/projects/845/repo/SDK_2.9.1_EVK-MIMX8MM/components/serial_manager/fsl_component_serial_manager.c.obj
 .debug_info    0x000000000000e625      0x46e CMakeFiles/low_power_usecases.elf.dir/home/nxf46594/projects/845/repo/SDK_2.9.1_EVK-MIMX8MM/components/serial_manager/fsl_component_serial_port_uart.c.obj
 .debug_info    0x000000000000ea93     0x22b8 CMakeFiles/low_power_usecases.elf.dir/home/nxf46594/projects/845/repo/SDK_2.9.1_EVK-MIMX8MM/devices/MIMX8MM6/drivers/fsl_uart.c.obj
 .debug_info    0x0000000000010d4b      0xd3f CMakeFiles/low_power_usecases.elf.dir/home/nxf46594/projects/845/repo/SDK_2.9.1_EVK-MIMX8MM/components/uart/fsl_adapter_iuart.c.obj
 .debug_info    0x0000000000011a8a       0x26 CMakeFiles/low_power_usecases.elf.dir/home/nxf46594/projects/845/repo/SDK_2.9.1_EVK-MIMX8MM/devices/MIMX8MM6/gcc/startup_MIMX8MM6_cm4.S.obj
 .debug_info    0x0000000000011ab0      0xb23 CMakeFiles/low_power_usecases.elf.dir/home/nxf46594/projects/845/repo/SDK_2.9.1_EVK-MIMX8MM/devices/MIMX8MM6/system_MIMX8MM6_cm4.c.obj
 .debug_info    0x00000000000125d3       0xcd CMakeFiles/low_power_usecases.elf.dir/home/nxf46594/projects/845/repo/SDK_2.9.1_EVK-MIMX8MM/devices/MIMX8MM6/utilities/fsl_assert.c.obj
 .debug_info    0x00000000000126a0       0xfb CMakeFiles/low_power_usecases.elf.dir/home/nxf46594/projects/845/repo/SDK_2.9.1_EVK-MIMX8MM/devices/MIMX8MM6/utilities/fsl_sbrk.c.obj
 .debug_info    0x000000000001279b      0x8e5 CMakeFiles/low_power_usecases.elf.dir/home/nxf46594/projects/845/repo/SDK_2.9.1_EVK-MIMX8MM/devices/MIMX8MM6/drivers/fsl_gpc.c.obj
 .debug_info    0x0000000000013080      0xc0a CMakeFiles/low_power_usecases.elf.dir/home/nxf46594/projects/845/repo/SDK_2.9.1_EVK-MIMX8MM/devices/MIMX8MM6/drivers/fsl_gpt.c.obj
 .debug_info    0x0000000000013c8a      0xc4e CMakeFiles/low_power_usecases.elf.dir/home/nxf46594/projects/845/repo/SDK_2.9.1_EVK-MIMX8MM/devices/MIMX8MM6/drivers/fsl_mu.c.obj
 .debug_info    0x00000000000148d8     0x21cb CMakeFiles/low_power_usecases.elf.dir/home/nxf46594/projects/845/repo/SDK_2.9.1_EVK-MIMX8MM/devices/MIMX8MM6/drivers/fsl_i2c.c.obj
 .debug_info    0x0000000000016aa3      0x547 CMakeFiles/low_power_usecases.elf.dir/home/nxf46594/projects/845/repo/SDK_2.9.1_EVK-MIMX8MM/devices/MIMX8MM6/drivers/fsl_i2c_freertos.c.obj

.debug_abbrev   0x0000000000000000     0x3495
 .debug_abbrev  0x0000000000000000      0x36f CMakeFiles/low_power_usecases.elf.dir/home/nxf46594/projects/845/repo/SDK_2.9.1_EVK-MIMX8MM/boards/evkmimx8mm/rtos_examples/low_power_usecases/low_power_usecases.c.obj
 .debug_abbrev  0x000000000000036f       0x96 CMakeFiles/low_power_usecases.elf.dir/home/nxf46594/projects/845/repo/SDK_2.9.1_EVK-MIMX8MM/boards/evkmimx8mm/rtos_examples/low_power_usecases/pin_mux.c.obj
 .debug_abbrev  0x0000000000000405      0x215 CMakeFiles/low_power_usecases.elf.dir/home/nxf46594/projects/845/repo/SDK_2.9.1_EVK-MIMX8MM/boards/evkmimx8mm/rtos_examples/low_power_usecases/board.c.obj
 .debug_abbrev  0x000000000000061a      0x192 CMakeFiles/low_power_usecases.elf.dir/home/nxf46594/projects/845/repo/SDK_2.9.1_EVK-MIMX8MM/boards/evkmimx8mm/rtos_examples/low_power_usecases/clock_config.c.obj
 .debug_abbrev  0x00000000000007ac       0x61 CMakeFiles/low_power_usecases.elf.dir/home/nxf46594/projects/845/repo/SDK_2.9.1_EVK-MIMX8MM/boards/evkmimx8mm/rtos_examples/low_power_usecases/empty_rsc_table.c.obj
 .debug_abbrev  0x000000000000080d      0x2bd CMakeFiles/low_power_usecases.elf.dir/home/nxf46594/projects/845/repo/SDK_2.9.1_EVK-MIMX8MM/devices/MIMX8MM6/drivers/fsl_clock.c.obj
 .debug_abbrev  0x0000000000000aca      0x1d4 CMakeFiles/low_power_usecases.elf.dir/home/nxf46594/projects/845/repo/SDK_2.9.1_EVK-MIMX8MM/rtos/freertos/freertos_kernel/portable/MemMang/heap_4.c.obj
 .debug_abbrev  0x0000000000000c9e       0xef CMakeFiles/low_power_usecases.elf.dir/home/nxf46594/projects/845/repo/SDK_2.9.1_EVK-MIMX8MM/rtos/freertos/freertos_kernel/list.c.obj
 .debug_abbrev  0x0000000000000d8d      0x22e CMakeFiles/low_power_usecases.elf.dir/home/nxf46594/projects/845/repo/SDK_2.9.1_EVK-MIMX8MM/rtos/freertos/freertos_kernel/portable/GCC/ARM_CM4F/port.c.obj
 .debug_abbrev  0x0000000000000fbb      0x2a4 CMakeFiles/low_power_usecases.elf.dir/home/nxf46594/projects/845/repo/SDK_2.9.1_EVK-MIMX8MM/rtos/freertos/freertos_kernel/queue.c.obj
 .debug_abbrev  0x000000000000125f      0x37b CMakeFiles/low_power_usecases.elf.dir/home/nxf46594/projects/845/repo/SDK_2.9.1_EVK-MIMX8MM/rtos/freertos/freertos_kernel/tasks.c.obj
 .debug_abbrev  0x00000000000015da      0x248 CMakeFiles/low_power_usecases.elf.dir/home/nxf46594/projects/845/repo/SDK_2.9.1_EVK-MIMX8MM/rtos/freertos/freertos_kernel/timers.c.obj
 .debug_abbrev  0x0000000000001822      0x274 CMakeFiles/low_power_usecases.elf.dir/home/nxf46594/projects/845/repo/SDK_2.9.1_EVK-MIMX8MM/devices/MIMX8MM6/drivers/fsl_rdc.c.obj
 .debug_abbrev  0x0000000000001a96      0x230 CMakeFiles/low_power_usecases.elf.dir/home/nxf46594/projects/845/repo/SDK_2.9.1_EVK-MIMX8MM/devices/MIMX8MM6/utilities/str/fsl_str.c.obj
 .debug_abbrev  0x0000000000001cc6      0x278 CMakeFiles/low_power_usecases.elf.dir/home/nxf46594/projects/845/repo/SDK_2.9.1_EVK-MIMX8MM/devices/MIMX8MM6/utilities/debug_console/fsl_debug_console.c.obj
 .debug_abbrev  0x0000000000001f3e      0x23a CMakeFiles/low_power_usecases.elf.dir/home/nxf46594/projects/845/repo/SDK_2.9.1_EVK-MIMX8MM/components/serial_manager/fsl_component_serial_manager.c.obj
 .debug_abbrev  0x0000000000002178      0x164 CMakeFiles/low_power_usecases.elf.dir/home/nxf46594/projects/845/repo/SDK_2.9.1_EVK-MIMX8MM/components/serial_manager/fsl_component_serial_port_uart.c.obj
 .debug_abbrev  0x00000000000022dc      0x322 CMakeFiles/low_power_usecases.elf.dir/home/nxf46594/projects/845/repo/SDK_2.9.1_EVK-MIMX8MM/devices/MIMX8MM6/drivers/fsl_uart.c.obj
 .debug_abbrev  0x00000000000025fe      0x1d5 CMakeFiles/low_power_usecases.elf.dir/home/nxf46594/projects/845/repo/SDK_2.9.1_EVK-MIMX8MM/components/uart/fsl_adapter_iuart.c.obj
 .debug_abbrev  0x00000000000027d3       0x14 CMakeFiles/low_power_usecases.elf.dir/home/nxf46594/projects/845/repo/SDK_2.9.1_EVK-MIMX8MM/devices/MIMX8MM6/gcc/startup_MIMX8MM6_cm4.S.obj
 .debug_abbrev  0x00000000000027e7      0x196 CMakeFiles/low_power_usecases.elf.dir/home/nxf46594/projects/845/repo/SDK_2.9.1_EVK-MIMX8MM/devices/MIMX8MM6/system_MIMX8MM6_cm4.c.obj
 .debug_abbrev  0x000000000000297d       0x68 CMakeFiles/low_power_usecases.elf.dir/home/nxf46594/projects/845/repo/SDK_2.9.1_EVK-MIMX8MM/devices/MIMX8MM6/utilities/fsl_assert.c.obj
 .debug_abbrev  0x00000000000029e5       0xbb CMakeFiles/low_power_usecases.elf.dir/home/nxf46594/projects/845/repo/SDK_2.9.1_EVK-MIMX8MM/devices/MIMX8MM6/utilities/fsl_sbrk.c.obj
 .debug_abbrev  0x0000000000002aa0      0x18a CMakeFiles/low_power_usecases.elf.dir/home/nxf46594/projects/845/repo/SDK_2.9.1_EVK-MIMX8MM/devices/MIMX8MM6/drivers/fsl_gpc.c.obj
 .debug_abbrev  0x0000000000002c2a      0x1d0 CMakeFiles/low_power_usecases.elf.dir/home/nxf46594/projects/845/repo/SDK_2.9.1_EVK-MIMX8MM/devices/MIMX8MM6/drivers/fsl_gpt.c.obj
 .debug_abbrev  0x0000000000002dfa      0x216 CMakeFiles/low_power_usecases.elf.dir/home/nxf46594/projects/845/repo/SDK_2.9.1_EVK-MIMX8MM/devices/MIMX8MM6/drivers/fsl_mu.c.obj
 .debug_abbrev  0x0000000000003010      0x320 CMakeFiles/low_power_usecases.elf.dir/home/nxf46594/projects/845/repo/SDK_2.9.1_EVK-MIMX8MM/devices/MIMX8MM6/drivers/fsl_i2c.c.obj
 .debug_abbrev  0x0000000000003330      0x165 CMakeFiles/low_power_usecases.elf.dir/home/nxf46594/projects/845/repo/SDK_2.9.1_EVK-MIMX8MM/devices/MIMX8MM6/drivers/fsl_i2c_freertos.c.obj

.debug_aranges  0x0000000000000000      0xfd0
 .debug_aranges
                0x0000000000000000       0xf8 CMakeFiles/low_power_usecases.elf.dir/home/nxf46594/projects/845/repo/SDK_2.9.1_EVK-MIMX8MM/boards/evkmimx8mm/rtos_examples/low_power_usecases/low_power_usecases.c.obj
 .debug_aranges
                0x00000000000000f8       0x38 CMakeFiles/low_power_usecases.elf.dir/home/nxf46594/projects/845/repo/SDK_2.9.1_EVK-MIMX8MM/boards/evkmimx8mm/rtos_examples/low_power_usecases/pin_mux.c.obj
 .debug_aranges
                0x0000000000000130       0x48 CMakeFiles/low_power_usecases.elf.dir/home/nxf46594/projects/845/repo/SDK_2.9.1_EVK-MIMX8MM/boards/evkmimx8mm/rtos_examples/low_power_usecases/board.c.obj
 .debug_aranges
                0x0000000000000178       0x28 CMakeFiles/low_power_usecases.elf.dir/home/nxf46594/projects/845/repo/SDK_2.9.1_EVK-MIMX8MM/boards/evkmimx8mm/rtos_examples/low_power_usecases/clock_config.c.obj
 .debug_aranges
                0x00000000000001a0       0x18 CMakeFiles/low_power_usecases.elf.dir/home/nxf46594/projects/845/repo/SDK_2.9.1_EVK-MIMX8MM/boards/evkmimx8mm/rtos_examples/low_power_usecases/empty_rsc_table.c.obj
 .debug_aranges
                0x00000000000001b8      0x138 CMakeFiles/low_power_usecases.elf.dir/home/nxf46594/projects/845/repo/SDK_2.9.1_EVK-MIMX8MM/devices/MIMX8MM6/drivers/fsl_clock.c.obj
 .debug_aranges
                0x00000000000002f0       0x58 CMakeFiles/low_power_usecases.elf.dir/home/nxf46594/projects/845/repo/SDK_2.9.1_EVK-MIMX8MM/rtos/freertos/freertos_kernel/portable/MemMang/heap_4.c.obj
 .debug_aranges
                0x0000000000000348       0x40 CMakeFiles/low_power_usecases.elf.dir/home/nxf46594/projects/845/repo/SDK_2.9.1_EVK-MIMX8MM/rtos/freertos/freertos_kernel/list.c.obj
 .debug_aranges
                0x0000000000000388       0x80 CMakeFiles/low_power_usecases.elf.dir/home/nxf46594/projects/845/repo/SDK_2.9.1_EVK-MIMX8MM/rtos/freertos/freertos_kernel/portable/GCC/ARM_CM4F/port.c.obj
 .debug_aranges
                0x0000000000000408      0x130 CMakeFiles/low_power_usecases.elf.dir/home/nxf46594/projects/845/repo/SDK_2.9.1_EVK-MIMX8MM/rtos/freertos/freertos_kernel/queue.c.obj
 .debug_aranges
                0x0000000000000538      0x220 CMakeFiles/low_power_usecases.elf.dir/home/nxf46594/projects/845/repo/SDK_2.9.1_EVK-MIMX8MM/rtos/freertos/freertos_kernel/tasks.c.obj
 .debug_aranges
                0x0000000000000758       0xe8 CMakeFiles/low_power_usecases.elf.dir/home/nxf46594/projects/845/repo/SDK_2.9.1_EVK-MIMX8MM/rtos/freertos/freertos_kernel/timers.c.obj
 .debug_aranges
                0x0000000000000840       0x70 CMakeFiles/low_power_usecases.elf.dir/home/nxf46594/projects/845/repo/SDK_2.9.1_EVK-MIMX8MM/devices/MIMX8MM6/drivers/fsl_rdc.c.obj
 .debug_aranges
                0x00000000000008b0       0xb8 CMakeFiles/low_power_usecases.elf.dir/home/nxf46594/projects/845/repo/SDK_2.9.1_EVK-MIMX8MM/devices/MIMX8MM6/utilities/str/fsl_str.c.obj
 .debug_aranges
                0x0000000000000968       0x98 CMakeFiles/low_power_usecases.elf.dir/home/nxf46594/projects/845/repo/SDK_2.9.1_EVK-MIMX8MM/devices/MIMX8MM6/utilities/debug_console/fsl_debug_console.c.obj
 .debug_aranges
                0x0000000000000a00       0x98 CMakeFiles/low_power_usecases.elf.dir/home/nxf46594/projects/845/repo/SDK_2.9.1_EVK-MIMX8MM/components/serial_manager/fsl_component_serial_manager.c.obj
 .debug_aranges
                0x0000000000000a98       0x48 CMakeFiles/low_power_usecases.elf.dir/home/nxf46594/projects/845/repo/SDK_2.9.1_EVK-MIMX8MM/components/serial_manager/fsl_component_serial_port_uart.c.obj
 .debug_aranges
                0x0000000000000ae0      0x160 CMakeFiles/low_power_usecases.elf.dir/home/nxf46594/projects/845/repo/SDK_2.9.1_EVK-MIMX8MM/devices/MIMX8MM6/drivers/fsl_uart.c.obj
 .debug_aranges
                0x0000000000000c40       0x50 CMakeFiles/low_power_usecases.elf.dir/home/nxf46594/projects/845/repo/SDK_2.9.1_EVK-MIMX8MM/components/uart/fsl_adapter_iuart.c.obj
 .debug_aranges
                0x0000000000000c90       0x20 CMakeFiles/low_power_usecases.elf.dir/home/nxf46594/projects/845/repo/SDK_2.9.1_EVK-MIMX8MM/devices/MIMX8MM6/gcc/startup_MIMX8MM6_cm4.S.obj
 .debug_aranges
                0x0000000000000cb0       0x40 CMakeFiles/low_power_usecases.elf.dir/home/nxf46594/projects/845/repo/SDK_2.9.1_EVK-MIMX8MM/devices/MIMX8MM6/system_MIMX8MM6_cm4.c.obj
 .debug_aranges
                0x0000000000000cf0       0x20 CMakeFiles/low_power_usecases.elf.dir/home/nxf46594/projects/845/repo/SDK_2.9.1_EVK-MIMX8MM/devices/MIMX8MM6/utilities/fsl_assert.c.obj
 .debug_aranges
                0x0000000000000d10       0x20 CMakeFiles/low_power_usecases.elf.dir/home/nxf46594/projects/845/repo/SDK_2.9.1_EVK-MIMX8MM/devices/MIMX8MM6/utilities/fsl_sbrk.c.obj
 .debug_aranges
                0x0000000000000d30       0x48 CMakeFiles/low_power_usecases.elf.dir/home/nxf46594/projects/845/repo/SDK_2.9.1_EVK-MIMX8MM/devices/MIMX8MM6/drivers/fsl_gpc.c.obj
 .debug_aranges
                0x0000000000000d78       0x50 CMakeFiles/low_power_usecases.elf.dir/home/nxf46594/projects/845/repo/SDK_2.9.1_EVK-MIMX8MM/devices/MIMX8MM6/drivers/fsl_gpt.c.obj
 .debug_aranges
                0x0000000000000dc8       0x58 CMakeFiles/low_power_usecases.elf.dir/home/nxf46594/projects/845/repo/SDK_2.9.1_EVK-MIMX8MM/devices/MIMX8MM6/drivers/fsl_mu.c.obj
 .debug_aranges
                0x0000000000000e20      0x178 CMakeFiles/low_power_usecases.elf.dir/home/nxf46594/projects/845/repo/SDK_2.9.1_EVK-MIMX8MM/devices/MIMX8MM6/drivers/fsl_i2c.c.obj
 .debug_aranges
                0x0000000000000f98       0x38 CMakeFiles/low_power_usecases.elf.dir/home/nxf46594/projects/845/repo/SDK_2.9.1_EVK-MIMX8MM/devices/MIMX8MM6/drivers/fsl_i2c_freertos.c.obj

.debug_ranges   0x0000000000000000      0xe28
 .debug_ranges  0x0000000000000000       0xe8 CMakeFiles/low_power_usecases.elf.dir/home/nxf46594/projects/845/repo/SDK_2.9.1_EVK-MIMX8MM/boards/evkmimx8mm/rtos_examples/low_power_usecases/low_power_usecases.c.obj
 .debug_ranges  0x00000000000000e8       0x28 CMakeFiles/low_power_usecases.elf.dir/home/nxf46594/projects/845/repo/SDK_2.9.1_EVK-MIMX8MM/boards/evkmimx8mm/rtos_examples/low_power_usecases/pin_mux.c.obj
 .debug_ranges  0x0000000000000110       0x38 CMakeFiles/low_power_usecases.elf.dir/home/nxf46594/projects/845/repo/SDK_2.9.1_EVK-MIMX8MM/boards/evkmimx8mm/rtos_examples/low_power_usecases/board.c.obj
 .debug_ranges  0x0000000000000148       0x18 CMakeFiles/low_power_usecases.elf.dir/home/nxf46594/projects/845/repo/SDK_2.9.1_EVK-MIMX8MM/boards/evkmimx8mm/rtos_examples/low_power_usecases/clock_config.c.obj
 .debug_ranges  0x0000000000000160      0x128 CMakeFiles/low_power_usecases.elf.dir/home/nxf46594/projects/845/repo/SDK_2.9.1_EVK-MIMX8MM/devices/MIMX8MM6/drivers/fsl_clock.c.obj
 .debug_ranges  0x0000000000000288       0x48 CMakeFiles/low_power_usecases.elf.dir/home/nxf46594/projects/845/repo/SDK_2.9.1_EVK-MIMX8MM/rtos/freertos/freertos_kernel/portable/MemMang/heap_4.c.obj
 .debug_ranges  0x00000000000002d0       0x30 CMakeFiles/low_power_usecases.elf.dir/home/nxf46594/projects/845/repo/SDK_2.9.1_EVK-MIMX8MM/rtos/freertos/freertos_kernel/list.c.obj
 .debug_ranges  0x0000000000000300       0x70 CMakeFiles/low_power_usecases.elf.dir/home/nxf46594/projects/845/repo/SDK_2.9.1_EVK-MIMX8MM/rtos/freertos/freertos_kernel/portable/GCC/ARM_CM4F/port.c.obj
 .debug_ranges  0x0000000000000370      0x120 CMakeFiles/low_power_usecases.elf.dir/home/nxf46594/projects/845/repo/SDK_2.9.1_EVK-MIMX8MM/rtos/freertos/freertos_kernel/queue.c.obj
 .debug_ranges  0x0000000000000490      0x210 CMakeFiles/low_power_usecases.elf.dir/home/nxf46594/projects/845/repo/SDK_2.9.1_EVK-MIMX8MM/rtos/freertos/freertos_kernel/tasks.c.obj
 .debug_ranges  0x00000000000006a0       0xd8 CMakeFiles/low_power_usecases.elf.dir/home/nxf46594/projects/845/repo/SDK_2.9.1_EVK-MIMX8MM/rtos/freertos/freertos_kernel/timers.c.obj
 .debug_ranges  0x0000000000000778       0x60 CMakeFiles/low_power_usecases.elf.dir/home/nxf46594/projects/845/repo/SDK_2.9.1_EVK-MIMX8MM/devices/MIMX8MM6/drivers/fsl_rdc.c.obj
 .debug_ranges  0x00000000000007d8       0xd8 CMakeFiles/low_power_usecases.elf.dir/home/nxf46594/projects/845/repo/SDK_2.9.1_EVK-MIMX8MM/devices/MIMX8MM6/utilities/str/fsl_str.c.obj
 .debug_ranges  0x00000000000008b0       0x88 CMakeFiles/low_power_usecases.elf.dir/home/nxf46594/projects/845/repo/SDK_2.9.1_EVK-MIMX8MM/devices/MIMX8MM6/utilities/debug_console/fsl_debug_console.c.obj
 .debug_ranges  0x0000000000000938       0x88 CMakeFiles/low_power_usecases.elf.dir/home/nxf46594/projects/845/repo/SDK_2.9.1_EVK-MIMX8MM/components/serial_manager/fsl_component_serial_manager.c.obj
 .debug_ranges  0x00000000000009c0       0x38 CMakeFiles/low_power_usecases.elf.dir/home/nxf46594/projects/845/repo/SDK_2.9.1_EVK-MIMX8MM/components/serial_manager/fsl_component_serial_port_uart.c.obj
 .debug_ranges  0x00000000000009f8      0x150 CMakeFiles/low_power_usecases.elf.dir/home/nxf46594/projects/845/repo/SDK_2.9.1_EVK-MIMX8MM/devices/MIMX8MM6/drivers/fsl_uart.c.obj
 .debug_ranges  0x0000000000000b48       0x40 CMakeFiles/low_power_usecases.elf.dir/home/nxf46594/projects/845/repo/SDK_2.9.1_EVK-MIMX8MM/components/uart/fsl_adapter_iuart.c.obj
 .debug_ranges  0x0000000000000b88       0x30 CMakeFiles/low_power_usecases.elf.dir/home/nxf46594/projects/845/repo/SDK_2.9.1_EVK-MIMX8MM/devices/MIMX8MM6/system_MIMX8MM6_cm4.c.obj
 .debug_ranges  0x0000000000000bb8       0x10 CMakeFiles/low_power_usecases.elf.dir/home/nxf46594/projects/845/repo/SDK_2.9.1_EVK-MIMX8MM/devices/MIMX8MM6/utilities/fsl_assert.c.obj
 .debug_ranges  0x0000000000000bc8       0x10 CMakeFiles/low_power_usecases.elf.dir/home/nxf46594/projects/845/repo/SDK_2.9.1_EVK-MIMX8MM/devices/MIMX8MM6/utilities/fsl_sbrk.c.obj
 .debug_ranges  0x0000000000000bd8       0x38 CMakeFiles/low_power_usecases.elf.dir/home/nxf46594/projects/845/repo/SDK_2.9.1_EVK-MIMX8MM/devices/MIMX8MM6/drivers/fsl_gpc.c.obj
 .debug_ranges  0x0000000000000c10       0x40 CMakeFiles/low_power_usecases.elf.dir/home/nxf46594/projects/845/repo/SDK_2.9.1_EVK-MIMX8MM/devices/MIMX8MM6/drivers/fsl_gpt.c.obj
 .debug_ranges  0x0000000000000c50       0x48 CMakeFiles/low_power_usecases.elf.dir/home/nxf46594/projects/845/repo/SDK_2.9.1_EVK-MIMX8MM/devices/MIMX8MM6/drivers/fsl_mu.c.obj
 .debug_ranges  0x0000000000000c98      0x168 CMakeFiles/low_power_usecases.elf.dir/home/nxf46594/projects/845/repo/SDK_2.9.1_EVK-MIMX8MM/devices/MIMX8MM6/drivers/fsl_i2c.c.obj
 .debug_ranges  0x0000000000000e00       0x28 CMakeFiles/low_power_usecases.elf.dir/home/nxf46594/projects/845/repo/SDK_2.9.1_EVK-MIMX8MM/devices/MIMX8MM6/drivers/fsl_i2c_freertos.c.obj

.debug_line     0x0000000000000000     0xb1d3
 .debug_line    0x0000000000000000      0x9d0 CMakeFiles/low_power_usecases.elf.dir/home/nxf46594/projects/845/repo/SDK_2.9.1_EVK-MIMX8MM/boards/evkmimx8mm/rtos_examples/low_power_usecases/low_power_usecases.c.obj
 .debug_line    0x00000000000009d0      0x189 CMakeFiles/low_power_usecases.elf.dir/home/nxf46594/projects/845/repo/SDK_2.9.1_EVK-MIMX8MM/boards/evkmimx8mm/rtos_examples/low_power_usecases/pin_mux.c.obj
 .debug_line    0x0000000000000b59      0x410 CMakeFiles/low_power_usecases.elf.dir/home/nxf46594/projects/845/repo/SDK_2.9.1_EVK-MIMX8MM/boards/evkmimx8mm/rtos_examples/low_power_usecases/board.c.obj
 .debug_line    0x0000000000000f69      0x21d CMakeFiles/low_power_usecases.elf.dir/home/nxf46594/projects/845/repo/SDK_2.9.1_EVK-MIMX8MM/boards/evkmimx8mm/rtos_examples/low_power_usecases/clock_config.c.obj
 .debug_line    0x0000000000001186       0xf9 CMakeFiles/low_power_usecases.elf.dir/home/nxf46594/projects/845/repo/SDK_2.9.1_EVK-MIMX8MM/boards/evkmimx8mm/rtos_examples/low_power_usecases/empty_rsc_table.c.obj
 .debug_line    0x000000000000127f      0x9ba CMakeFiles/low_power_usecases.elf.dir/home/nxf46594/projects/845/repo/SDK_2.9.1_EVK-MIMX8MM/devices/MIMX8MM6/drivers/fsl_clock.c.obj
 .debug_line    0x0000000000001c39      0x501 CMakeFiles/low_power_usecases.elf.dir/home/nxf46594/projects/845/repo/SDK_2.9.1_EVK-MIMX8MM/rtos/freertos/freertos_kernel/portable/MemMang/heap_4.c.obj
 .debug_line    0x000000000000213a      0x2d1 CMakeFiles/low_power_usecases.elf.dir/home/nxf46594/projects/845/repo/SDK_2.9.1_EVK-MIMX8MM/rtos/freertos/freertos_kernel/list.c.obj
 .debug_line    0x000000000000240b      0x51f CMakeFiles/low_power_usecases.elf.dir/home/nxf46594/projects/845/repo/SDK_2.9.1_EVK-MIMX8MM/rtos/freertos/freertos_kernel/portable/GCC/ARM_CM4F/port.c.obj
 .debug_line    0x000000000000292a     0x10bd CMakeFiles/low_power_usecases.elf.dir/home/nxf46594/projects/845/repo/SDK_2.9.1_EVK-MIMX8MM/rtos/freertos/freertos_kernel/queue.c.obj
 .debug_line    0x00000000000039e7     0x1ac3 CMakeFiles/low_power_usecases.elf.dir/home/nxf46594/projects/845/repo/SDK_2.9.1_EVK-MIMX8MM/rtos/freertos/freertos_kernel/tasks.c.obj
 .debug_line    0x00000000000054aa      0x8bd CMakeFiles/low_power_usecases.elf.dir/home/nxf46594/projects/845/repo/SDK_2.9.1_EVK-MIMX8MM/rtos/freertos/freertos_kernel/timers.c.obj
 .debug_line    0x0000000000005d67      0x3d0 CMakeFiles/low_power_usecases.elf.dir/home/nxf46594/projects/845/repo/SDK_2.9.1_EVK-MIMX8MM/devices/MIMX8MM6/drivers/fsl_rdc.c.obj
 .debug_line    0x0000000000006137      0x88a CMakeFiles/low_power_usecases.elf.dir/home/nxf46594/projects/845/repo/SDK_2.9.1_EVK-MIMX8MM/devices/MIMX8MM6/utilities/str/fsl_str.c.obj
 .debug_line    0x00000000000069c1      0x634 CMakeFiles/low_power_usecases.elf.dir/home/nxf46594/projects/845/repo/SDK_2.9.1_EVK-MIMX8MM/devices/MIMX8MM6/utilities/debug_console/fsl_debug_console.c.obj
 .debug_line    0x0000000000006ff5      0x539 CMakeFiles/low_power_usecases.elf.dir/home/nxf46594/projects/845/repo/SDK_2.9.1_EVK-MIMX8MM/components/serial_manager/fsl_component_serial_manager.c.obj
 .debug_line    0x000000000000752e      0x297 CMakeFiles/low_power_usecases.elf.dir/home/nxf46594/projects/845/repo/SDK_2.9.1_EVK-MIMX8MM/components/serial_manager/fsl_component_serial_port_uart.c.obj
 .debug_line    0x00000000000077c5     0x1377 CMakeFiles/low_power_usecases.elf.dir/home/nxf46594/projects/845/repo/SDK_2.9.1_EVK-MIMX8MM/devices/MIMX8MM6/drivers/fsl_uart.c.obj
 .debug_line    0x0000000000008b3c      0x358 CMakeFiles/low_power_usecases.elf.dir/home/nxf46594/projects/845/repo/SDK_2.9.1_EVK-MIMX8MM/components/uart/fsl_adapter_iuart.c.obj
 .debug_line    0x0000000000008e94      0x188 CMakeFiles/low_power_usecases.elf.dir/home/nxf46594/projects/845/repo/SDK_2.9.1_EVK-MIMX8MM/devices/MIMX8MM6/gcc/startup_MIMX8MM6_cm4.S.obj
 .debug_line    0x000000000000901c      0x324 CMakeFiles/low_power_usecases.elf.dir/home/nxf46594/projects/845/repo/SDK_2.9.1_EVK-MIMX8MM/devices/MIMX8MM6/system_MIMX8MM6_cm4.c.obj
 .debug_line    0x0000000000009340       0xe4 CMakeFiles/low_power_usecases.elf.dir/home/nxf46594/projects/845/repo/SDK_2.9.1_EVK-MIMX8MM/devices/MIMX8MM6/utilities/fsl_assert.c.obj
 .debug_line    0x0000000000009424      0x117 CMakeFiles/low_power_usecases.elf.dir/home/nxf46594/projects/845/repo/SDK_2.9.1_EVK-MIMX8MM/devices/MIMX8MM6/utilities/fsl_sbrk.c.obj
 .debug_line    0x000000000000953b      0x36e CMakeFiles/low_power_usecases.elf.dir/home/nxf46594/projects/845/repo/SDK_2.9.1_EVK-MIMX8MM/devices/MIMX8MM6/drivers/fsl_gpc.c.obj
 .debug_line    0x00000000000098a9      0x366 CMakeFiles/low_power_usecases.elf.dir/home/nxf46594/projects/845/repo/SDK_2.9.1_EVK-MIMX8MM/devices/MIMX8MM6/drivers/fsl_gpt.c.obj
 .debug_line    0x0000000000009c0f      0x2df CMakeFiles/low_power_usecases.elf.dir/home/nxf46594/projects/845/repo/SDK_2.9.1_EVK-MIMX8MM/devices/MIMX8MM6/drivers/fsl_mu.c.obj
 .debug_line    0x0000000000009eee      0xfb9 CMakeFiles/low_power_usecases.elf.dir/home/nxf46594/projects/845/repo/SDK_2.9.1_EVK-MIMX8MM/devices/MIMX8MM6/drivers/fsl_i2c.c.obj
 .debug_line    0x000000000000aea7      0x32c CMakeFiles/low_power_usecases.elf.dir/home/nxf46594/projects/845/repo/SDK_2.9.1_EVK-MIMX8MM/devices/MIMX8MM6/drivers/fsl_i2c_freertos.c.obj

.debug_str      0x0000000000000000     0xa576
 .debug_str     0x0000000000000000     0x2e58 CMakeFiles/low_power_usecases.elf.dir/home/nxf46594/projects/845/repo/SDK_2.9.1_EVK-MIMX8MM/boards/evkmimx8mm/rtos_examples/low_power_usecases/low_power_usecases.c.obj
                                       0x2f6d (size before relaxing)
 .debug_str     0x0000000000002e58      0x110 CMakeFiles/low_power_usecases.elf.dir/home/nxf46594/projects/845/repo/SDK_2.9.1_EVK-MIMX8MM/boards/evkmimx8mm/rtos_examples/low_power_usecases/pin_mux.c.obj
                                        0x2e8 (size before relaxing)
 .debug_str     0x0000000000002f68      0x9b1 CMakeFiles/low_power_usecases.elf.dir/home/nxf46594/projects/845/repo/SDK_2.9.1_EVK-MIMX8MM/boards/evkmimx8mm/rtos_examples/low_power_usecases/board.c.obj
                                        0xfd1 (size before relaxing)
 .debug_str     0x0000000000003919      0x579 CMakeFiles/low_power_usecases.elf.dir/home/nxf46594/projects/845/repo/SDK_2.9.1_EVK-MIMX8MM/boards/evkmimx8mm/rtos_examples/low_power_usecases/clock_config.c.obj
                                       0x185d (size before relaxing)
 .debug_str     0x0000000000003e92       0x8b CMakeFiles/low_power_usecases.elf.dir/home/nxf46594/projects/845/repo/SDK_2.9.1_EVK-MIMX8MM/boards/evkmimx8mm/rtos_examples/low_power_usecases/empty_rsc_table.c.obj
                                        0x25e (size before relaxing)
 .debug_str     0x0000000000003f1d      0xd83 CMakeFiles/low_power_usecases.elf.dir/home/nxf46594/projects/845/repo/SDK_2.9.1_EVK-MIMX8MM/devices/MIMX8MM6/drivers/fsl_clock.c.obj
                                       0x1a85 (size before relaxing)
 .debug_str     0x0000000000004ca0      0x336 CMakeFiles/low_power_usecases.elf.dir/home/nxf46594/projects/845/repo/SDK_2.9.1_EVK-MIMX8MM/rtos/freertos/freertos_kernel/portable/MemMang/heap_4.c.obj
                                        0x533 (size before relaxing)
 .debug_str     0x0000000000004fd6      0x17a CMakeFiles/low_power_usecases.elf.dir/home/nxf46594/projects/845/repo/SDK_2.9.1_EVK-MIMX8MM/rtos/freertos/freertos_kernel/list.c.obj
                                        0x373 (size before relaxing)
 .debug_str     0x0000000000005150      0x291 CMakeFiles/low_power_usecases.elf.dir/home/nxf46594/projects/845/repo/SDK_2.9.1_EVK-MIMX8MM/rtos/freertos/freertos_kernel/portable/GCC/ARM_CM4F/port.c.obj
                                        0x4bf (size before relaxing)
 .debug_str     0x00000000000053e1      0x6a5 CMakeFiles/low_power_usecases.elf.dir/home/nxf46594/projects/845/repo/SDK_2.9.1_EVK-MIMX8MM/rtos/freertos/freertos_kernel/queue.c.obj
                                        0xa11 (size before relaxing)
 .debug_str     0x0000000000005a86      0xd8e CMakeFiles/low_power_usecases.elf.dir/home/nxf46594/projects/845/repo/SDK_2.9.1_EVK-MIMX8MM/rtos/freertos/freertos_kernel/tasks.c.obj
                                       0x1cd9 (size before relaxing)
 .debug_str     0x0000000000006814      0x56e CMakeFiles/low_power_usecases.elf.dir/home/nxf46594/projects/845/repo/SDK_2.9.1_EVK-MIMX8MM/rtos/freertos/freertos_kernel/timers.c.obj
                                        0x8e4 (size before relaxing)
 .debug_str     0x0000000000006d82      0x723 CMakeFiles/low_power_usecases.elf.dir/home/nxf46594/projects/845/repo/SDK_2.9.1_EVK-MIMX8MM/devices/MIMX8MM6/drivers/fsl_rdc.c.obj
                                       0x2061 (size before relaxing)
 .debug_str     0x00000000000074a5      0x381 CMakeFiles/low_power_usecases.elf.dir/home/nxf46594/projects/845/repo/SDK_2.9.1_EVK-MIMX8MM/devices/MIMX8MM6/utilities/str/fsl_str.c.obj
                                        0x5a3 (size before relaxing)
 .debug_str     0x0000000000007826      0x6e8 CMakeFiles/low_power_usecases.elf.dir/home/nxf46594/projects/845/repo/SDK_2.9.1_EVK-MIMX8MM/devices/MIMX8MM6/utilities/debug_console/fsl_debug_console.c.obj
                                       0x1432 (size before relaxing)
 .debug_str     0x0000000000007f0e      0x389 CMakeFiles/low_power_usecases.elf.dir/home/nxf46594/projects/845/repo/SDK_2.9.1_EVK-MIMX8MM/components/serial_manager/fsl_component_serial_manager.c.obj
                                        0x83e (size before relaxing)
 .debug_str     0x0000000000008297      0x331 CMakeFiles/low_power_usecases.elf.dir/home/nxf46594/projects/845/repo/SDK_2.9.1_EVK-MIMX8MM/components/serial_manager/fsl_component_serial_port_uart.c.obj
                                        0x6ed (size before relaxing)
 .debug_str     0x00000000000085c8      0xde9 CMakeFiles/low_power_usecases.elf.dir/home/nxf46594/projects/845/repo/SDK_2.9.1_EVK-MIMX8MM/devices/MIMX8MM6/drivers/fsl_uart.c.obj
                                       0x27e9 (size before relaxing)
 .debug_str     0x00000000000093b1      0x114 CMakeFiles/low_power_usecases.elf.dir/home/nxf46594/projects/845/repo/SDK_2.9.1_EVK-MIMX8MM/components/uart/fsl_adapter_iuart.c.obj
                                       0x11ea (size before relaxing)
 .debug_str     0x00000000000094c5       0x71 CMakeFiles/low_power_usecases.elf.dir/home/nxf46594/projects/845/repo/SDK_2.9.1_EVK-MIMX8MM/devices/MIMX8MM6/gcc/startup_MIMX8MM6_cm4.S.obj
                                         0xe2 (size before relaxing)
 .debug_str     0x0000000000009536       0xe5 CMakeFiles/low_power_usecases.elf.dir/home/nxf46594/projects/845/repo/SDK_2.9.1_EVK-MIMX8MM/devices/MIMX8MM6/system_MIMX8MM6_cm4.c.obj
                                        0x919 (size before relaxing)
 .debug_str     0x000000000000961b       0x82 CMakeFiles/low_power_usecases.elf.dir/home/nxf46594/projects/845/repo/SDK_2.9.1_EVK-MIMX8MM/devices/MIMX8MM6/utilities/fsl_assert.c.obj
                                        0x256 (size before relaxing)
 .debug_str     0x000000000000969d       0x95 CMakeFiles/low_power_usecases.elf.dir/home/nxf46594/projects/845/repo/SDK_2.9.1_EVK-MIMX8MM/devices/MIMX8MM6/utilities/fsl_sbrk.c.obj
                                        0x26d (size before relaxing)
 .debug_str     0x0000000000009732      0x1ef CMakeFiles/low_power_usecases.elf.dir/home/nxf46594/projects/845/repo/SDK_2.9.1_EVK-MIMX8MM/devices/MIMX8MM6/drivers/fsl_gpc.c.obj
                                        0x7ff (size before relaxing)
 .debug_str     0x0000000000009921       0xee CMakeFiles/low_power_usecases.elf.dir/home/nxf46594/projects/845/repo/SDK_2.9.1_EVK-MIMX8MM/devices/MIMX8MM6/drivers/fsl_gpt.c.obj
                                       0x11b6 (size before relaxing)
 .debug_str     0x0000000000009a0f      0x202 CMakeFiles/low_power_usecases.elf.dir/home/nxf46594/projects/845/repo/SDK_2.9.1_EVK-MIMX8MM/devices/MIMX8MM6/drivers/fsl_mu.c.obj
                                       0x1225 (size before relaxing)
 .debug_str     0x0000000000009c11      0x8b5 CMakeFiles/low_power_usecases.elf.dir/home/nxf46594/projects/845/repo/SDK_2.9.1_EVK-MIMX8MM/devices/MIMX8MM6/drivers/fsl_i2c.c.obj
                                       0x23dc (size before relaxing)
 .debug_str     0x000000000000a4c6       0xb0 CMakeFiles/low_power_usecases.elf.dir/home/nxf46594/projects/845/repo/SDK_2.9.1_EVK-MIMX8MM/devices/MIMX8MM6/drivers/fsl_i2c_freertos.c.obj
                                        0x62e (size before relaxing)

.comment        0x0000000000000000       0x4d
 .comment       0x0000000000000000       0x4d CMakeFiles/low_power_usecases.elf.dir/home/nxf46594/projects/845/repo/SDK_2.9.1_EVK-MIMX8MM/boards/evkmimx8mm/rtos_examples/low_power_usecases/low_power_usecases.c.obj
                                         0x4e (size before relaxing)
 .comment       0x000000000000004d       0x4e CMakeFiles/low_power_usecases.elf.dir/home/nxf46594/projects/845/repo/SDK_2.9.1_EVK-MIMX8MM/boards/evkmimx8mm/rtos_examples/low_power_usecases/pin_mux.c.obj
 .comment       0x000000000000004d       0x4e CMakeFiles/low_power_usecases.elf.dir/home/nxf46594/projects/845/repo/SDK_2.9.1_EVK-MIMX8MM/boards/evkmimx8mm/rtos_examples/low_power_usecases/board.c.obj
 .comment       0x000000000000004d       0x4e CMakeFiles/low_power_usecases.elf.dir/home/nxf46594/projects/845/repo/SDK_2.9.1_EVK-MIMX8MM/boards/evkmimx8mm/rtos_examples/low_power_usecases/clock_config.c.obj
 .comment       0x000000000000004d       0x4e CMakeFiles/low_power_usecases.elf.dir/home/nxf46594/projects/845/repo/SDK_2.9.1_EVK-MIMX8MM/boards/evkmimx8mm/rtos_examples/low_power_usecases/empty_rsc_table.c.obj
 .comment       0x000000000000004d       0x4e CMakeFiles/low_power_usecases.elf.dir/home/nxf46594/projects/845/repo/SDK_2.9.1_EVK-MIMX8MM/devices/MIMX8MM6/drivers/fsl_clock.c.obj
 .comment       0x000000000000004d       0x4e CMakeFiles/low_power_usecases.elf.dir/home/nxf46594/projects/845/repo/SDK_2.9.1_EVK-MIMX8MM/rtos/freertos/freertos_kernel/portable/MemMang/heap_4.c.obj
 .comment       0x000000000000004d       0x4e CMakeFiles/low_power_usecases.elf.dir/home/nxf46594/projects/845/repo/SDK_2.9.1_EVK-MIMX8MM/rtos/freertos/freertos_kernel/list.c.obj
 .comment       0x000000000000004d       0x4e CMakeFiles/low_power_usecases.elf.dir/home/nxf46594/projects/845/repo/SDK_2.9.1_EVK-MIMX8MM/rtos/freertos/freertos_kernel/portable/GCC/ARM_CM4F/port.c.obj
 .comment       0x000000000000004d       0x4e CMakeFiles/low_power_usecases.elf.dir/home/nxf46594/projects/845/repo/SDK_2.9.1_EVK-MIMX8MM/rtos/freertos/freertos_kernel/queue.c.obj
 .comment       0x000000000000004d       0x4e CMakeFiles/low_power_usecases.elf.dir/home/nxf46594/projects/845/repo/SDK_2.9.1_EVK-MIMX8MM/rtos/freertos/freertos_kernel/tasks.c.obj
 .comment       0x000000000000004d       0x4e CMakeFiles/low_power_usecases.elf.dir/home/nxf46594/projects/845/repo/SDK_2.9.1_EVK-MIMX8MM/rtos/freertos/freertos_kernel/timers.c.obj
 .comment       0x000000000000004d       0x4e CMakeFiles/low_power_usecases.elf.dir/home/nxf46594/projects/845/repo/SDK_2.9.1_EVK-MIMX8MM/devices/MIMX8MM6/drivers/fsl_rdc.c.obj
 .comment       0x000000000000004d       0x4e CMakeFiles/low_power_usecases.elf.dir/home/nxf46594/projects/845/repo/SDK_2.9.1_EVK-MIMX8MM/devices/MIMX8MM6/utilities/str/fsl_str.c.obj
 .comment       0x000000000000004d       0x4e CMakeFiles/low_power_usecases.elf.dir/home/nxf46594/projects/845/repo/SDK_2.9.1_EVK-MIMX8MM/devices/MIMX8MM6/utilities/debug_console/fsl_debug_console.c.obj
 .comment       0x000000000000004d       0x4e CMakeFiles/low_power_usecases.elf.dir/home/nxf46594/projects/845/repo/SDK_2.9.1_EVK-MIMX8MM/components/serial_manager/fsl_component_serial_manager.c.obj
 .comment       0x000000000000004d       0x4e CMakeFiles/low_power_usecases.elf.dir/home/nxf46594/projects/845/repo/SDK_2.9.1_EVK-MIMX8MM/components/serial_manager/fsl_component_serial_port_uart.c.obj
 .comment       0x000000000000004d       0x4e CMakeFiles/low_power_usecases.elf.dir/home/nxf46594/projects/845/repo/SDK_2.9.1_EVK-MIMX8MM/devices/MIMX8MM6/drivers/fsl_uart.c.obj
 .comment       0x000000000000004d       0x4e CMakeFiles/low_power_usecases.elf.dir/home/nxf46594/projects/845/repo/SDK_2.9.1_EVK-MIMX8MM/components/uart/fsl_adapter_iuart.c.obj
 .comment       0x000000000000004d       0x4e CMakeFiles/low_power_usecases.elf.dir/home/nxf46594/projects/845/repo/SDK_2.9.1_EVK-MIMX8MM/devices/MIMX8MM6/system_MIMX8MM6_cm4.c.obj
 .comment       0x000000000000004d       0x4e CMakeFiles/low_power_usecases.elf.dir/home/nxf46594/projects/845/repo/SDK_2.9.1_EVK-MIMX8MM/devices/MIMX8MM6/utilities/fsl_assert.c.obj
 .comment       0x000000000000004d       0x4e CMakeFiles/low_power_usecases.elf.dir/home/nxf46594/projects/845/repo/SDK_2.9.1_EVK-MIMX8MM/devices/MIMX8MM6/utilities/fsl_sbrk.c.obj
 .comment       0x000000000000004d       0x4e CMakeFiles/low_power_usecases.elf.dir/home/nxf46594/projects/845/repo/SDK_2.9.1_EVK-MIMX8MM/devices/MIMX8MM6/drivers/fsl_gpc.c.obj
 .comment       0x000000000000004d       0x4e CMakeFiles/low_power_usecases.elf.dir/home/nxf46594/projects/845/repo/SDK_2.9.1_EVK-MIMX8MM/devices/MIMX8MM6/drivers/fsl_gpt.c.obj
 .comment       0x000000000000004d       0x4e CMakeFiles/low_power_usecases.elf.dir/home/nxf46594/projects/845/repo/SDK_2.9.1_EVK-MIMX8MM/devices/MIMX8MM6/drivers/fsl_mu.c.obj
 .comment       0x000000000000004d       0x4e CMakeFiles/low_power_usecases.elf.dir/home/nxf46594/projects/845/repo/SDK_2.9.1_EVK-MIMX8MM/devices/MIMX8MM6/drivers/fsl_i2c.c.obj
 .comment       0x000000000000004d       0x4e CMakeFiles/low_power_usecases.elf.dir/home/nxf46594/projects/845/repo/SDK_2.9.1_EVK-MIMX8MM/devices/MIMX8MM6/drivers/fsl_i2c_freertos.c.obj

.debug_frame    0x0000000000000000     0x4348
 .debug_frame   0x0000000000000000      0x410 CMakeFiles/low_power_usecases.elf.dir/home/nxf46594/projects/845/repo/SDK_2.9.1_EVK-MIMX8MM/boards/evkmimx8mm/rtos_examples/low_power_usecases/low_power_usecases.c.obj
 .debug_frame   0x0000000000000410       0xa0 CMakeFiles/low_power_usecases.elf.dir/home/nxf46594/projects/845/repo/SDK_2.9.1_EVK-MIMX8MM/boards/evkmimx8mm/rtos_examples/low_power_usecases/pin_mux.c.obj
 .debug_frame   0x00000000000004b0       0xf8 CMakeFiles/low_power_usecases.elf.dir/home/nxf46594/projects/845/repo/SDK_2.9.1_EVK-MIMX8MM/boards/evkmimx8mm/rtos_examples/low_power_usecases/board.c.obj
 .debug_frame   0x00000000000005a8       0x54 CMakeFiles/low_power_usecases.elf.dir/home/nxf46594/projects/845/repo/SDK_2.9.1_EVK-MIMX8MM/boards/evkmimx8mm/rtos_examples/low_power_usecases/clock_config.c.obj
 .debug_frame   0x00000000000005fc      0x52c CMakeFiles/low_power_usecases.elf.dir/home/nxf46594/projects/845/repo/SDK_2.9.1_EVK-MIMX8MM/devices/MIMX8MM6/drivers/fsl_clock.c.obj
 .debug_frame   0x0000000000000b28      0x12c CMakeFiles/low_power_usecases.elf.dir/home/nxf46594/projects/845/repo/SDK_2.9.1_EVK-MIMX8MM/rtos/freertos/freertos_kernel/portable/MemMang/heap_4.c.obj
 .debug_frame   0x0000000000000c54       0xd8 CMakeFiles/low_power_usecases.elf.dir/home/nxf46594/projects/845/repo/SDK_2.9.1_EVK-MIMX8MM/rtos/freertos/freertos_kernel/list.c.obj
 .debug_frame   0x0000000000000d2c      0x1a8 CMakeFiles/low_power_usecases.elf.dir/home/nxf46594/projects/845/repo/SDK_2.9.1_EVK-MIMX8MM/rtos/freertos/freertos_kernel/portable/GCC/ARM_CM4F/port.c.obj
 .debug_frame   0x0000000000000ed4      0x530 CMakeFiles/low_power_usecases.elf.dir/home/nxf46594/projects/845/repo/SDK_2.9.1_EVK-MIMX8MM/rtos/freertos/freertos_kernel/queue.c.obj
 .debug_frame   0x0000000000001404      0x958 CMakeFiles/low_power_usecases.elf.dir/home/nxf46594/projects/845/repo/SDK_2.9.1_EVK-MIMX8MM/rtos/freertos/freertos_kernel/tasks.c.obj
 .debug_frame   0x0000000000001d5c      0x3d4 CMakeFiles/low_power_usecases.elf.dir/home/nxf46594/projects/845/repo/SDK_2.9.1_EVK-MIMX8MM/rtos/freertos/freertos_kernel/timers.c.obj
 .debug_frame   0x0000000000002130      0x1a0 CMakeFiles/low_power_usecases.elf.dir/home/nxf46594/projects/845/repo/SDK_2.9.1_EVK-MIMX8MM/devices/MIMX8MM6/drivers/fsl_rdc.c.obj
 .debug_frame   0x00000000000022d0      0x32c CMakeFiles/low_power_usecases.elf.dir/home/nxf46594/projects/845/repo/SDK_2.9.1_EVK-MIMX8MM/devices/MIMX8MM6/utilities/str/fsl_str.c.obj
 .debug_frame   0x00000000000025fc      0x28c CMakeFiles/low_power_usecases.elf.dir/home/nxf46594/projects/845/repo/SDK_2.9.1_EVK-MIMX8MM/devices/MIMX8MM6/utilities/debug_console/fsl_debug_console.c.obj
 .debug_frame   0x0000000000002888      0x258 CMakeFiles/low_power_usecases.elf.dir/home/nxf46594/projects/845/repo/SDK_2.9.1_EVK-MIMX8MM/components/serial_manager/fsl_component_serial_manager.c.obj
 .debug_frame   0x0000000000002ae0       0xe8 CMakeFiles/low_power_usecases.elf.dir/home/nxf46594/projects/845/repo/SDK_2.9.1_EVK-MIMX8MM/components/serial_manager/fsl_component_serial_port_uart.c.obj
 .debug_frame   0x0000000000002bc8      0x5f4 CMakeFiles/low_power_usecases.elf.dir/home/nxf46594/projects/845/repo/SDK_2.9.1_EVK-MIMX8MM/devices/MIMX8MM6/drivers/fsl_uart.c.obj
 .debug_frame   0x00000000000031bc      0x110 CMakeFiles/low_power_usecases.elf.dir/home/nxf46594/projects/845/repo/SDK_2.9.1_EVK-MIMX8MM/components/uart/fsl_adapter_iuart.c.obj
 .debug_frame   0x00000000000032cc       0xd4 CMakeFiles/low_power_usecases.elf.dir/home/nxf46594/projects/845/repo/SDK_2.9.1_EVK-MIMX8MM/devices/MIMX8MM6/system_MIMX8MM6_cm4.c.obj
 .debug_frame   0x00000000000033a0       0x30 CMakeFiles/low_power_usecases.elf.dir/home/nxf46594/projects/845/repo/SDK_2.9.1_EVK-MIMX8MM/devices/MIMX8MM6/utilities/fsl_assert.c.obj
 .debug_frame   0x00000000000033d0       0x34 CMakeFiles/low_power_usecases.elf.dir/home/nxf46594/projects/845/repo/SDK_2.9.1_EVK-MIMX8MM/devices/MIMX8MM6/utilities/fsl_sbrk.c.obj
 .debug_frame   0x0000000000003404       0xf0 CMakeFiles/low_power_usecases.elf.dir/home/nxf46594/projects/845/repo/SDK_2.9.1_EVK-MIMX8MM/devices/MIMX8MM6/drivers/fsl_gpc.c.obj
 .debug_frame   0x00000000000034f4      0x114 CMakeFiles/low_power_usecases.elf.dir/home/nxf46594/projects/845/repo/SDK_2.9.1_EVK-MIMX8MM/devices/MIMX8MM6/drivers/fsl_gpt.c.obj
 .debug_frame   0x0000000000003608      0x138 CMakeFiles/low_power_usecases.elf.dir/home/nxf46594/projects/845/repo/SDK_2.9.1_EVK-MIMX8MM/devices/MIMX8MM6/drivers/fsl_mu.c.obj
 .debug_frame   0x0000000000003740      0x65c CMakeFiles/low_power_usecases.elf.dir/home/nxf46594/projects/845/repo/SDK_2.9.1_EVK-MIMX8MM/devices/MIMX8MM6/drivers/fsl_i2c.c.obj
 .debug_frame   0x0000000000003d9c       0xa0 CMakeFiles/low_power_usecases.elf.dir/home/nxf46594/projects/845/repo/SDK_2.9.1_EVK-MIMX8MM/devices/MIMX8MM6/drivers/fsl_i2c_freertos.c.obj
 .debug_frame   0x0000000000003e3c       0x20 /opt/gcc-arm-none-eabi-10-2020-q4-major/bin/../lib/gcc/arm-none-eabi/10.2.1/../../../../arm-none-eabi/lib/thumb/v7e-m+fp/hard/libc_nano.a(lib_a-errno.o)
 .debug_frame   0x0000000000003e5c       0x28 /opt/gcc-arm-none-eabi-10-2020-q4-major/bin/../lib/gcc/arm-none-eabi/10.2.1/../../../../arm-none-eabi/lib/thumb/v7e-m+fp/hard/libc_nano.a(lib_a-exit.o)
 .debug_frame   0x0000000000003e84       0x2c /opt/gcc-arm-none-eabi-10-2020-q4-major/bin/../lib/gcc/arm-none-eabi/10.2.1/../../../../arm-none-eabi/lib/thumb/v7e-m+fp/hard/libc_nano.a(lib_a-init.o)
 .debug_frame   0x0000000000003eb0       0x28 /opt/gcc-arm-none-eabi-10-2020-q4-major/bin/../lib/gcc/arm-none-eabi/10.2.1/../../../../arm-none-eabi/lib/thumb/v7e-m+fp/hard/libc_nano.a(lib_a-memcpy-stub.o)
 .debug_frame   0x0000000000003ed8       0x20 /opt/gcc-arm-none-eabi-10-2020-q4-major/bin/../lib/gcc/arm-none-eabi/10.2.1/../../../../arm-none-eabi/lib/thumb/v7e-m+fp/hard/libc_nano.a(lib_a-memset.o)
 .debug_frame   0x0000000000003ef8       0x38 /opt/gcc-arm-none-eabi-10-2020-q4-major/bin/../lib/gcc/arm-none-eabi/10.2.1/../../../../arm-none-eabi/lib/thumb/v7e-m+fp/hard/libc_nano.a(lib_a-nano-freer.o)
 .debug_frame   0x0000000000003f30       0x30 /opt/gcc-arm-none-eabi-10-2020-q4-major/bin/../lib/gcc/arm-none-eabi/10.2.1/../../../../arm-none-eabi/lib/thumb/v7e-m+fp/hard/libc_nano.a(lib_a-nano-mallocr.o)
 .debug_frame   0x0000000000003f60       0x2c /opt/gcc-arm-none-eabi-10-2020-q4-major/bin/../lib/gcc/arm-none-eabi/10.2.1/../../../../arm-none-eabi/lib/thumb/v7e-m+fp/hard/libc_nano.a(lib_a-sbrkr.o)
 .debug_frame   0x0000000000003f8c       0x6c /opt/gcc-arm-none-eabi-10-2020-q4-major/bin/../lib/gcc/arm-none-eabi/10.2.1/../../../../arm-none-eabi/lib/thumb/v7e-m+fp/hard/libc_nano.a(lib_a-sprintf.o)
 .debug_frame   0x0000000000003ff8       0x20 /opt/gcc-arm-none-eabi-10-2020-q4-major/bin/../lib/gcc/arm-none-eabi/10.2.1/../../../../arm-none-eabi/lib/thumb/v7e-m+fp/hard/libc_nano.a(lib_a-strcpy.o)
 .debug_frame   0x0000000000004018       0x30 /opt/gcc-arm-none-eabi-10-2020-q4-major/bin/../lib/gcc/arm-none-eabi/10.2.1/../../../../arm-none-eabi/lib/thumb/v7e-m+fp/hard/libc_nano.a(lib_a-mlock.o)
 .debug_frame   0x0000000000004048       0x90 /opt/gcc-arm-none-eabi-10-2020-q4-major/bin/../lib/gcc/arm-none-eabi/10.2.1/../../../../arm-none-eabi/lib/thumb/v7e-m+fp/hard/libc_nano.a(lib_a-nano-svfprintf.o)
 .debug_frame   0x00000000000040d8       0x60 /opt/gcc-arm-none-eabi-10-2020-q4-major/bin/../lib/gcc/arm-none-eabi/10.2.1/../../../../arm-none-eabi/lib/thumb/v7e-m+fp/hard/libc_nano.a(lib_a-nano-vfprintf_i.o)
 .debug_frame   0x0000000000004138       0x5c /opt/gcc-arm-none-eabi-10-2020-q4-major/bin/../lib/gcc/arm-none-eabi/10.2.1/../../../../arm-none-eabi/lib/thumb/v7e-m+fp/hard/libc_nano.a(lib_a-reent.o)
 .debug_frame   0x0000000000004194       0xb0 /opt/gcc-arm-none-eabi-10-2020-q4-major/bin/../lib/gcc/arm-none-eabi/10.2.1/../../../../arm-none-eabi/lib/thumb/v7e-m+fp/hard/libc_nano.a(lib_a-lock.o)
 .debug_frame   0x0000000000004244       0x28 /opt/gcc-arm-none-eabi-10-2020-q4-major/bin/../lib/gcc/arm-none-eabi/10.2.1/../../../../arm-none-eabi/lib/thumb/v7e-m+fp/hard/libc_nano.a(lib_a-memmove.o)
 .debug_frame   0x000000000000426c       0x3c /opt/gcc-arm-none-eabi-10-2020-q4-major/bin/../lib/gcc/arm-none-eabi/10.2.1/../../../../arm-none-eabi/lib/thumb/v7e-m+fp/hard/libc_nano.a(lib_a-nano-reallocr.o)
 .debug_frame   0x00000000000042a8       0x20 /opt/gcc-arm-none-eabi-10-2020-q4-major/bin/../lib/gcc/arm-none-eabi/10.2.1/../../../../arm-none-eabi/lib/thumb/v7e-m+fp/hard/libc_nano.a(lib_a-nano-msizer.o)
 .debug_frame   0x00000000000042c8       0x2c /opt/gcc-arm-none-eabi-10-2020-q4-major/bin/../lib/gcc/arm-none-eabi/10.2.1/thumb/v7e-m+fp/hard/libgcc.a(_aeabi_uldivmod.o)
 .debug_frame   0x00000000000042f4       0x34 /opt/gcc-arm-none-eabi-10-2020-q4-major/bin/../lib/gcc/arm-none-eabi/10.2.1/thumb/v7e-m+fp/hard/libgcc.a(_udivmoddi4.o)
 .debug_frame   0x0000000000004328       0x20 /opt/gcc-arm-none-eabi-10-2020-q4-major/bin/../lib/gcc/arm-none-eabi/10.2.1/../../../../arm-none-eabi/lib/thumb/v7e-m+fp/hard/libnosys.a(_exit.o)
